
rtarget:     file format elf64-x86-64


Disassembly of section .init:

0000000000400bc8 <_init>:
  400bc8:	48 83 ec 08          	sub    $0x8,%rsp
  400bcc:	48 8b 05 25 44 20 00 	mov    0x204425(%rip),%rax        # 604ff8 <_DYNAMIC+0x1d0>
  400bd3:	48 85 c0             	test   %rax,%rax
  400bd6:	74 05                	je     400bdd <_init+0x15>
  400bd8:	e8 33 01 00 00       	callq  400d10 <__gmon_start__@plt>
  400bdd:	48 83 c4 08          	add    $0x8,%rsp
  400be1:	c3                   	retq   

Disassembly of section .plt:

0000000000400bf0 <strcasecmp@plt-0x10>:
  400bf0:	ff 35 12 44 20 00    	pushq  0x204412(%rip)        # 605008 <_GLOBAL_OFFSET_TABLE_+0x8>
  400bf6:	ff 25 14 44 20 00    	jmpq   *0x204414(%rip)        # 605010 <_GLOBAL_OFFSET_TABLE_+0x10>
  400bfc:	0f 1f 40 00          	nopl   0x0(%rax)

0000000000400c00 <strcasecmp@plt>:
  400c00:	ff 25 12 44 20 00    	jmpq   *0x204412(%rip)        # 605018 <_GLOBAL_OFFSET_TABLE_+0x18>
  400c06:	68 00 00 00 00       	pushq  $0x0
  400c0b:	e9 e0 ff ff ff       	jmpq   400bf0 <_init+0x28>

0000000000400c10 <__errno_location@plt>:
  400c10:	ff 25 0a 44 20 00    	jmpq   *0x20440a(%rip)        # 605020 <_GLOBAL_OFFSET_TABLE_+0x20>
  400c16:	68 01 00 00 00       	pushq  $0x1
  400c1b:	e9 d0 ff ff ff       	jmpq   400bf0 <_init+0x28>

0000000000400c20 <srandom@plt>:
  400c20:	ff 25 02 44 20 00    	jmpq   *0x204402(%rip)        # 605028 <_GLOBAL_OFFSET_TABLE_+0x28>
  400c26:	68 02 00 00 00       	pushq  $0x2
  400c2b:	e9 c0 ff ff ff       	jmpq   400bf0 <_init+0x28>

0000000000400c30 <strncmp@plt>:
  400c30:	ff 25 fa 43 20 00    	jmpq   *0x2043fa(%rip)        # 605030 <_GLOBAL_OFFSET_TABLE_+0x30>
  400c36:	68 03 00 00 00       	pushq  $0x3
  400c3b:	e9 b0 ff ff ff       	jmpq   400bf0 <_init+0x28>

0000000000400c40 <strcpy@plt>:
  400c40:	ff 25 f2 43 20 00    	jmpq   *0x2043f2(%rip)        # 605038 <_GLOBAL_OFFSET_TABLE_+0x38>
  400c46:	68 04 00 00 00       	pushq  $0x4
  400c4b:	e9 a0 ff ff ff       	jmpq   400bf0 <_init+0x28>

0000000000400c50 <puts@plt>:
  400c50:	ff 25 ea 43 20 00    	jmpq   *0x2043ea(%rip)        # 605040 <_GLOBAL_OFFSET_TABLE_+0x40>
  400c56:	68 05 00 00 00       	pushq  $0x5
  400c5b:	e9 90 ff ff ff       	jmpq   400bf0 <_init+0x28>

0000000000400c60 <write@plt>:
  400c60:	ff 25 e2 43 20 00    	jmpq   *0x2043e2(%rip)        # 605048 <_GLOBAL_OFFSET_TABLE_+0x48>
  400c66:	68 06 00 00 00       	pushq  $0x6
  400c6b:	e9 80 ff ff ff       	jmpq   400bf0 <_init+0x28>

0000000000400c70 <mmap@plt>:
  400c70:	ff 25 da 43 20 00    	jmpq   *0x2043da(%rip)        # 605050 <_GLOBAL_OFFSET_TABLE_+0x50>
  400c76:	68 07 00 00 00       	pushq  $0x7
  400c7b:	e9 70 ff ff ff       	jmpq   400bf0 <_init+0x28>

0000000000400c80 <printf@plt>:
  400c80:	ff 25 d2 43 20 00    	jmpq   *0x2043d2(%rip)        # 605058 <_GLOBAL_OFFSET_TABLE_+0x58>
  400c86:	68 08 00 00 00       	pushq  $0x8
  400c8b:	e9 60 ff ff ff       	jmpq   400bf0 <_init+0x28>

0000000000400c90 <memset@plt>:
  400c90:	ff 25 ca 43 20 00    	jmpq   *0x2043ca(%rip)        # 605060 <_GLOBAL_OFFSET_TABLE_+0x60>
  400c96:	68 09 00 00 00       	pushq  $0x9
  400c9b:	e9 50 ff ff ff       	jmpq   400bf0 <_init+0x28>

0000000000400ca0 <alarm@plt>:
  400ca0:	ff 25 c2 43 20 00    	jmpq   *0x2043c2(%rip)        # 605068 <_GLOBAL_OFFSET_TABLE_+0x68>
  400ca6:	68 0a 00 00 00       	pushq  $0xa
  400cab:	e9 40 ff ff ff       	jmpq   400bf0 <_init+0x28>

0000000000400cb0 <close@plt>:
  400cb0:	ff 25 ba 43 20 00    	jmpq   *0x2043ba(%rip)        # 605070 <_GLOBAL_OFFSET_TABLE_+0x70>
  400cb6:	68 0b 00 00 00       	pushq  $0xb
  400cbb:	e9 30 ff ff ff       	jmpq   400bf0 <_init+0x28>

0000000000400cc0 <read@plt>:
  400cc0:	ff 25 b2 43 20 00    	jmpq   *0x2043b2(%rip)        # 605078 <_GLOBAL_OFFSET_TABLE_+0x78>
  400cc6:	68 0c 00 00 00       	pushq  $0xc
  400ccb:	e9 20 ff ff ff       	jmpq   400bf0 <_init+0x28>

0000000000400cd0 <__libc_start_main@plt>:
  400cd0:	ff 25 aa 43 20 00    	jmpq   *0x2043aa(%rip)        # 605080 <_GLOBAL_OFFSET_TABLE_+0x80>
  400cd6:	68 0d 00 00 00       	pushq  $0xd
  400cdb:	e9 10 ff ff ff       	jmpq   400bf0 <_init+0x28>

0000000000400ce0 <signal@plt>:
  400ce0:	ff 25 a2 43 20 00    	jmpq   *0x2043a2(%rip)        # 605088 <_GLOBAL_OFFSET_TABLE_+0x88>
  400ce6:	68 0e 00 00 00       	pushq  $0xe
  400ceb:	e9 00 ff ff ff       	jmpq   400bf0 <_init+0x28>

0000000000400cf0 <gethostbyname@plt>:
  400cf0:	ff 25 9a 43 20 00    	jmpq   *0x20439a(%rip)        # 605090 <_GLOBAL_OFFSET_TABLE_+0x90>
  400cf6:	68 0f 00 00 00       	pushq  $0xf
  400cfb:	e9 f0 fe ff ff       	jmpq   400bf0 <_init+0x28>

0000000000400d00 <fprintf@plt>:
  400d00:	ff 25 92 43 20 00    	jmpq   *0x204392(%rip)        # 605098 <_GLOBAL_OFFSET_TABLE_+0x98>
  400d06:	68 10 00 00 00       	pushq  $0x10
  400d0b:	e9 e0 fe ff ff       	jmpq   400bf0 <_init+0x28>

0000000000400d10 <__gmon_start__@plt>:
  400d10:	ff 25 8a 43 20 00    	jmpq   *0x20438a(%rip)        # 6050a0 <_GLOBAL_OFFSET_TABLE_+0xa0>
  400d16:	68 11 00 00 00       	pushq  $0x11
  400d1b:	e9 d0 fe ff ff       	jmpq   400bf0 <_init+0x28>

0000000000400d20 <strtol@plt>:
  400d20:	ff 25 82 43 20 00    	jmpq   *0x204382(%rip)        # 6050a8 <_GLOBAL_OFFSET_TABLE_+0xa8>
  400d26:	68 12 00 00 00       	pushq  $0x12
  400d2b:	e9 c0 fe ff ff       	jmpq   400bf0 <_init+0x28>

0000000000400d30 <memcpy@plt>:
  400d30:	ff 25 7a 43 20 00    	jmpq   *0x20437a(%rip)        # 6050b0 <_GLOBAL_OFFSET_TABLE_+0xb0>
  400d36:	68 13 00 00 00       	pushq  $0x13
  400d3b:	e9 b0 fe ff ff       	jmpq   400bf0 <_init+0x28>

0000000000400d40 <time@plt>:
  400d40:	ff 25 72 43 20 00    	jmpq   *0x204372(%rip)        # 6050b8 <_GLOBAL_OFFSET_TABLE_+0xb8>
  400d46:	68 14 00 00 00       	pushq  $0x14
  400d4b:	e9 a0 fe ff ff       	jmpq   400bf0 <_init+0x28>

0000000000400d50 <random@plt>:
  400d50:	ff 25 6a 43 20 00    	jmpq   *0x20436a(%rip)        # 6050c0 <_GLOBAL_OFFSET_TABLE_+0xc0>
  400d56:	68 15 00 00 00       	pushq  $0x15
  400d5b:	e9 90 fe ff ff       	jmpq   400bf0 <_init+0x28>

0000000000400d60 <_IO_getc@plt>:
  400d60:	ff 25 62 43 20 00    	jmpq   *0x204362(%rip)        # 6050c8 <_GLOBAL_OFFSET_TABLE_+0xc8>
  400d66:	68 16 00 00 00       	pushq  $0x16
  400d6b:	e9 80 fe ff ff       	jmpq   400bf0 <_init+0x28>

0000000000400d70 <__isoc99_sscanf@plt>:
  400d70:	ff 25 5a 43 20 00    	jmpq   *0x20435a(%rip)        # 6050d0 <_GLOBAL_OFFSET_TABLE_+0xd0>
  400d76:	68 17 00 00 00       	pushq  $0x17
  400d7b:	e9 70 fe ff ff       	jmpq   400bf0 <_init+0x28>

0000000000400d80 <munmap@plt>:
  400d80:	ff 25 52 43 20 00    	jmpq   *0x204352(%rip)        # 6050d8 <_GLOBAL_OFFSET_TABLE_+0xd8>
  400d86:	68 18 00 00 00       	pushq  $0x18
  400d8b:	e9 60 fe ff ff       	jmpq   400bf0 <_init+0x28>

0000000000400d90 <bcopy@plt>:
  400d90:	ff 25 4a 43 20 00    	jmpq   *0x20434a(%rip)        # 6050e0 <_GLOBAL_OFFSET_TABLE_+0xe0>
  400d96:	68 19 00 00 00       	pushq  $0x19
  400d9b:	e9 50 fe ff ff       	jmpq   400bf0 <_init+0x28>

0000000000400da0 <fopen@plt>:
  400da0:	ff 25 42 43 20 00    	jmpq   *0x204342(%rip)        # 6050e8 <_GLOBAL_OFFSET_TABLE_+0xe8>
  400da6:	68 1a 00 00 00       	pushq  $0x1a
  400dab:	e9 40 fe ff ff       	jmpq   400bf0 <_init+0x28>

0000000000400db0 <getopt@plt>:
  400db0:	ff 25 3a 43 20 00    	jmpq   *0x20433a(%rip)        # 6050f0 <_GLOBAL_OFFSET_TABLE_+0xf0>
  400db6:	68 1b 00 00 00       	pushq  $0x1b
  400dbb:	e9 30 fe ff ff       	jmpq   400bf0 <_init+0x28>

0000000000400dc0 <strtoul@plt>:
  400dc0:	ff 25 32 43 20 00    	jmpq   *0x204332(%rip)        # 6050f8 <_GLOBAL_OFFSET_TABLE_+0xf8>
  400dc6:	68 1c 00 00 00       	pushq  $0x1c
  400dcb:	e9 20 fe ff ff       	jmpq   400bf0 <_init+0x28>

0000000000400dd0 <gethostname@plt>:
  400dd0:	ff 25 2a 43 20 00    	jmpq   *0x20432a(%rip)        # 605100 <_GLOBAL_OFFSET_TABLE_+0x100>
  400dd6:	68 1d 00 00 00       	pushq  $0x1d
  400ddb:	e9 10 fe ff ff       	jmpq   400bf0 <_init+0x28>

0000000000400de0 <sprintf@plt>:
  400de0:	ff 25 22 43 20 00    	jmpq   *0x204322(%rip)        # 605108 <_GLOBAL_OFFSET_TABLE_+0x108>
  400de6:	68 1e 00 00 00       	pushq  $0x1e
  400deb:	e9 00 fe ff ff       	jmpq   400bf0 <_init+0x28>

0000000000400df0 <exit@plt>:
  400df0:	ff 25 1a 43 20 00    	jmpq   *0x20431a(%rip)        # 605110 <_GLOBAL_OFFSET_TABLE_+0x110>
  400df6:	68 1f 00 00 00       	pushq  $0x1f
  400dfb:	e9 f0 fd ff ff       	jmpq   400bf0 <_init+0x28>

0000000000400e00 <connect@plt>:
  400e00:	ff 25 12 43 20 00    	jmpq   *0x204312(%rip)        # 605118 <_GLOBAL_OFFSET_TABLE_+0x118>
  400e06:	68 20 00 00 00       	pushq  $0x20
  400e0b:	e9 e0 fd ff ff       	jmpq   400bf0 <_init+0x28>

0000000000400e10 <socket@plt>:
  400e10:	ff 25 0a 43 20 00    	jmpq   *0x20430a(%rip)        # 605120 <_GLOBAL_OFFSET_TABLE_+0x120>
  400e16:	68 21 00 00 00       	pushq  $0x21
  400e1b:	e9 d0 fd ff ff       	jmpq   400bf0 <_init+0x28>

Disassembly of section .text:

0000000000400e20 <_start>:
  400e20:	31 ed                	xor    %ebp,%ebp
  400e22:	49 89 d1             	mov    %rdx,%r9
  400e25:	5e                   	pop    %rsi
  400e26:	48 89 e2             	mov    %rsp,%rdx
  400e29:	48 83 e4 f0          	and    $0xfffffffffffffff0,%rsp
  400e2d:	50                   	push   %rax
  400e2e:	54                   	push   %rsp
  400e2f:	49 c7 c0 40 2d 40 00 	mov    $0x402d40,%r8
  400e36:	48 c7 c1 d0 2c 40 00 	mov    $0x402cd0,%rcx
  400e3d:	48 c7 c7 e0 10 40 00 	mov    $0x4010e0,%rdi
  400e44:	e8 87 fe ff ff       	callq  400cd0 <__libc_start_main@plt>
  400e49:	f4                   	hlt    
  400e4a:	66 90                	xchg   %ax,%ax
  400e4c:	0f 1f 40 00          	nopl   0x0(%rax)

0000000000400e50 <deregister_tm_clones>:
  400e50:	b8 b7 54 60 00       	mov    $0x6054b7,%eax
  400e55:	55                   	push   %rbp
  400e56:	48 2d b0 54 60 00    	sub    $0x6054b0,%rax
  400e5c:	48 83 f8 0e          	cmp    $0xe,%rax
  400e60:	48 89 e5             	mov    %rsp,%rbp
  400e63:	77 02                	ja     400e67 <deregister_tm_clones+0x17>
  400e65:	5d                   	pop    %rbp
  400e66:	c3                   	retq   
  400e67:	b8 00 00 00 00       	mov    $0x0,%eax
  400e6c:	48 85 c0             	test   %rax,%rax
  400e6f:	74 f4                	je     400e65 <deregister_tm_clones+0x15>
  400e71:	5d                   	pop    %rbp
  400e72:	bf b0 54 60 00       	mov    $0x6054b0,%edi
  400e77:	ff e0                	jmpq   *%rax
  400e79:	0f 1f 80 00 00 00 00 	nopl   0x0(%rax)

0000000000400e80 <register_tm_clones>:
  400e80:	b8 b0 54 60 00       	mov    $0x6054b0,%eax
  400e85:	55                   	push   %rbp
  400e86:	48 2d b0 54 60 00    	sub    $0x6054b0,%rax
  400e8c:	48 c1 f8 03          	sar    $0x3,%rax
  400e90:	48 89 e5             	mov    %rsp,%rbp
  400e93:	48 89 c2             	mov    %rax,%rdx
  400e96:	48 c1 ea 3f          	shr    $0x3f,%rdx
  400e9a:	48 01 d0             	add    %rdx,%rax
  400e9d:	48 d1 f8             	sar    %rax
  400ea0:	75 02                	jne    400ea4 <register_tm_clones+0x24>
  400ea2:	5d                   	pop    %rbp
  400ea3:	c3                   	retq   
  400ea4:	ba 00 00 00 00       	mov    $0x0,%edx
  400ea9:	48 85 d2             	test   %rdx,%rdx
  400eac:	74 f4                	je     400ea2 <register_tm_clones+0x22>
  400eae:	5d                   	pop    %rbp
  400eaf:	48 89 c6             	mov    %rax,%rsi
  400eb2:	bf b0 54 60 00       	mov    $0x6054b0,%edi
  400eb7:	ff e2                	jmpq   *%rdx
  400eb9:	0f 1f 80 00 00 00 00 	nopl   0x0(%rax)

0000000000400ec0 <__do_global_dtors_aux>:
  400ec0:	80 3d 11 46 20 00 00 	cmpb   $0x0,0x204611(%rip)        # 6054d8 <completed.6342>
  400ec7:	75 11                	jne    400eda <__do_global_dtors_aux+0x1a>
  400ec9:	55                   	push   %rbp
  400eca:	48 89 e5             	mov    %rsp,%rbp
  400ecd:	e8 7e ff ff ff       	callq  400e50 <deregister_tm_clones>
  400ed2:	5d                   	pop    %rbp
  400ed3:	c6 05 fe 45 20 00 01 	movb   $0x1,0x2045fe(%rip)        # 6054d8 <completed.6342>
  400eda:	f3 c3                	repz retq 
  400edc:	0f 1f 40 00          	nopl   0x0(%rax)

0000000000400ee0 <frame_dummy>:
  400ee0:	48 83 3d 38 3f 20 00 	cmpq   $0x0,0x203f38(%rip)        # 604e20 <__JCR_END__>
  400ee7:	00 
  400ee8:	74 1e                	je     400f08 <frame_dummy+0x28>
  400eea:	b8 00 00 00 00       	mov    $0x0,%eax
  400eef:	48 85 c0             	test   %rax,%rax
  400ef2:	74 14                	je     400f08 <frame_dummy+0x28>
  400ef4:	55                   	push   %rbp
  400ef5:	bf 20 4e 60 00       	mov    $0x604e20,%edi
  400efa:	48 89 e5             	mov    %rsp,%rbp
  400efd:	ff d0                	callq  *%rax
  400eff:	5d                   	pop    %rbp
  400f00:	e9 7b ff ff ff       	jmpq   400e80 <register_tm_clones>
  400f05:	0f 1f 00             	nopl   (%rax)
  400f08:	e9 73 ff ff ff       	jmpq   400e80 <register_tm_clones>
  400f0d:	0f 1f 00             	nopl   (%rax)

0000000000400f10 <usage>:
  400f10:	48 83 ec 08          	sub    $0x8,%rsp
  400f14:	48 89 fe             	mov    %rdi,%rsi
  400f17:	83 3d ea 45 20 00 00 	cmpl   $0x0,0x2045ea(%rip)        # 605508 <is_checker>
  400f1e:	74 39                	je     400f59 <usage+0x49>
  400f20:	bf 60 2d 40 00       	mov    $0x402d60,%edi
  400f25:	b8 00 00 00 00       	mov    $0x0,%eax
  400f2a:	e8 51 fd ff ff       	callq  400c80 <printf@plt>
  400f2f:	bf 98 2d 40 00       	mov    $0x402d98,%edi
  400f34:	e8 17 fd ff ff       	callq  400c50 <puts@plt>
  400f39:	bf 10 2f 40 00       	mov    $0x402f10,%edi
  400f3e:	e8 0d fd ff ff       	callq  400c50 <puts@plt>
  400f43:	bf c0 2d 40 00       	mov    $0x402dc0,%edi
  400f48:	e8 03 fd ff ff       	callq  400c50 <puts@plt>
  400f4d:	bf 2a 2f 40 00       	mov    $0x402f2a,%edi
  400f52:	e8 f9 fc ff ff       	callq  400c50 <puts@plt>
  400f57:	eb 2d                	jmp    400f86 <usage+0x76>
  400f59:	bf 46 2f 40 00       	mov    $0x402f46,%edi
  400f5e:	b8 00 00 00 00       	mov    $0x0,%eax
  400f63:	e8 18 fd ff ff       	callq  400c80 <printf@plt>
  400f68:	bf e8 2d 40 00       	mov    $0x402de8,%edi
  400f6d:	e8 de fc ff ff       	callq  400c50 <puts@plt>
  400f72:	bf 10 2e 40 00       	mov    $0x402e10,%edi
  400f77:	e8 d4 fc ff ff       	callq  400c50 <puts@plt>
  400f7c:	bf 64 2f 40 00       	mov    $0x402f64,%edi
  400f81:	e8 ca fc ff ff       	callq  400c50 <puts@plt>
  400f86:	bf 00 00 00 00       	mov    $0x0,%edi
  400f8b:	e8 60 fe ff ff       	callq  400df0 <exit@plt>

0000000000400f90 <initialize_target>:
  400f90:	55                   	push   %rbp
  400f91:	53                   	push   %rbx
  400f92:	48 81 ec 08 21 00 00 	sub    $0x2108,%rsp
  400f99:	89 f5                	mov    %esi,%ebp
  400f9b:	89 3d 57 45 20 00    	mov    %edi,0x204557(%rip)        # 6054f8 <check_level>
  400fa1:	8b 3d c1 41 20 00    	mov    0x2041c1(%rip),%edi        # 605168 <target_id>
  400fa7:	e8 fa 1c 00 00       	callq  402ca6 <gencookie>
  400fac:	89 05 52 45 20 00    	mov    %eax,0x204552(%rip)        # 605504 <cookie>
  400fb2:	89 c7                	mov    %eax,%edi
  400fb4:	e8 ed 1c 00 00       	callq  402ca6 <gencookie>
  400fb9:	89 05 41 45 20 00    	mov    %eax,0x204541(%rip)        # 605500 <authkey>
  400fbf:	8b 05 a3 41 20 00    	mov    0x2041a3(%rip),%eax        # 605168 <target_id>
  400fc5:	8d 78 01             	lea    0x1(%rax),%edi
  400fc8:	e8 53 fc ff ff       	callq  400c20 <srandom@plt>
  400fcd:	e8 7e fd ff ff       	callq  400d50 <random@plt>
  400fd2:	89 c7                	mov    %eax,%edi
  400fd4:	e8 cb 02 00 00       	callq  4012a4 <scramble>
  400fd9:	89 c3                	mov    %eax,%ebx
  400fdb:	85 ed                	test   %ebp,%ebp
  400fdd:	74 18                	je     400ff7 <initialize_target+0x67>
  400fdf:	bf 00 00 00 00       	mov    $0x0,%edi
  400fe4:	e8 57 fd ff ff       	callq  400d40 <time@plt>
  400fe9:	89 c7                	mov    %eax,%edi
  400feb:	e8 30 fc ff ff       	callq  400c20 <srandom@plt>
  400ff0:	e8 5b fd ff ff       	callq  400d50 <random@plt>
  400ff5:	eb 05                	jmp    400ffc <initialize_target+0x6c>
  400ff7:	b8 00 00 00 00       	mov    $0x0,%eax
  400ffc:	01 c3                	add    %eax,%ebx
  400ffe:	0f b7 db             	movzwl %bx,%ebx
  401001:	8d 04 dd 00 01 00 00 	lea    0x100(,%rbx,8),%eax
  401008:	89 c0                	mov    %eax,%eax
  40100a:	48 89 05 8f 44 20 00 	mov    %rax,0x20448f(%rip)        # 6054a0 <buf_offset>
  401011:	c6 05 10 51 20 00 72 	movb   $0x72,0x205110(%rip)        # 606128 <target_prefix>
  401018:	83 3d 89 44 20 00 00 	cmpl   $0x0,0x204489(%rip)        # 6054a8 <notify>
  40101f:	0f 84 b1 00 00 00    	je     4010d6 <initialize_target+0x146>
  401025:	83 3d dc 44 20 00 00 	cmpl   $0x0,0x2044dc(%rip)        # 605508 <is_checker>
  40102c:	0f 85 a4 00 00 00    	jne    4010d6 <initialize_target+0x146>
  401032:	be 00 01 00 00       	mov    $0x100,%esi
  401037:	48 89 e7             	mov    %rsp,%rdi
  40103a:	e8 91 fd ff ff       	callq  400dd0 <gethostname@plt>
  40103f:	85 c0                	test   %eax,%eax
  401041:	74 25                	je     401068 <initialize_target+0xd8>
  401043:	bf 40 2e 40 00       	mov    $0x402e40,%edi
  401048:	e8 03 fc ff ff       	callq  400c50 <puts@plt>
  40104d:	bf 08 00 00 00       	mov    $0x8,%edi
  401052:	e8 99 fd ff ff       	callq  400df0 <exit@plt>
  401057:	48 89 e6             	mov    %rsp,%rsi
  40105a:	e8 a1 fb ff ff       	callq  400c00 <strcasecmp@plt>
  40105f:	85 c0                	test   %eax,%eax
  401061:	74 21                	je     401084 <initialize_target+0xf4>
  401063:	83 c3 01             	add    $0x1,%ebx
  401066:	eb 05                	jmp    40106d <initialize_target+0xdd>
  401068:	bb 00 00 00 00       	mov    $0x0,%ebx
  40106d:	48 63 c3             	movslq %ebx,%rax
  401070:	48 8b 3c c5 80 51 60 	mov    0x605180(,%rax,8),%rdi
  401077:	00 
  401078:	48 85 ff             	test   %rdi,%rdi
  40107b:	75 da                	jne    401057 <initialize_target+0xc7>
  40107d:	b8 00 00 00 00       	mov    $0x0,%eax
  401082:	eb 05                	jmp    401089 <initialize_target+0xf9>
  401084:	b8 01 00 00 00       	mov    $0x1,%eax
  401089:	85 c0                	test   %eax,%eax
  40108b:	75 17                	jne    4010a4 <initialize_target+0x114>
  40108d:	48 89 e6             	mov    %rsp,%rsi
  401090:	bf 78 2e 40 00       	mov    $0x402e78,%edi
  401095:	e8 e6 fb ff ff       	callq  400c80 <printf@plt>
  40109a:	bf 08 00 00 00       	mov    $0x8,%edi
  40109f:	e8 4c fd ff ff       	callq  400df0 <exit@plt>
  4010a4:	48 8d bc 24 00 01 00 	lea    0x100(%rsp),%rdi
  4010ab:	00 
  4010ac:	e8 89 19 00 00       	callq  402a3a <init_driver>
  4010b1:	85 c0                	test   %eax,%eax
  4010b3:	79 21                	jns    4010d6 <initialize_target+0x146>
  4010b5:	48 8d b4 24 00 01 00 	lea    0x100(%rsp),%rsi
  4010bc:	00 
  4010bd:	bf b8 2e 40 00       	mov    $0x402eb8,%edi
  4010c2:	b8 00 00 00 00       	mov    $0x0,%eax
  4010c7:	e8 b4 fb ff ff       	callq  400c80 <printf@plt>
  4010cc:	bf 08 00 00 00       	mov    $0x8,%edi
  4010d1:	e8 1a fd ff ff       	callq  400df0 <exit@plt>
  4010d6:	48 81 c4 08 21 00 00 	add    $0x2108,%rsp
  4010dd:	5b                   	pop    %rbx
  4010de:	5d                   	pop    %rbp
  4010df:	c3                   	retq   

00000000004010e0 <main>:
  4010e0:	41 56                	push   %r14
  4010e2:	41 55                	push   %r13
  4010e4:	41 54                	push   %r12
  4010e6:	55                   	push   %rbp
  4010e7:	53                   	push   %rbx
  4010e8:	41 89 fc             	mov    %edi,%r12d
  4010eb:	48 89 f3             	mov    %rsi,%rbx
  4010ee:	be 61 1e 40 00       	mov    $0x401e61,%esi
  4010f3:	bf 0b 00 00 00       	mov    $0xb,%edi
  4010f8:	e8 e3 fb ff ff       	callq  400ce0 <signal@plt>
  4010fd:	be 13 1e 40 00       	mov    $0x401e13,%esi
  401102:	bf 07 00 00 00       	mov    $0x7,%edi
  401107:	e8 d4 fb ff ff       	callq  400ce0 <signal@plt>
  40110c:	be af 1e 40 00       	mov    $0x401eaf,%esi
  401111:	bf 04 00 00 00       	mov    $0x4,%edi
  401116:	e8 c5 fb ff ff       	callq  400ce0 <signal@plt>
  40111b:	83 3d e6 43 20 00 00 	cmpl   $0x0,0x2043e6(%rip)        # 605508 <is_checker>
  401122:	74 20                	je     401144 <main+0x64>
  401124:	be fd 1e 40 00       	mov    $0x401efd,%esi
  401129:	bf 0e 00 00 00       	mov    $0xe,%edi
  40112e:	e8 ad fb ff ff       	callq  400ce0 <signal@plt>
  401133:	bf 05 00 00 00       	mov    $0x5,%edi
  401138:	e8 63 fb ff ff       	callq  400ca0 <alarm@plt>
  40113d:	bd 82 2f 40 00       	mov    $0x402f82,%ebp
  401142:	eb 05                	jmp    401149 <main+0x69>
  401144:	bd 7d 2f 40 00       	mov    $0x402f7d,%ebp
  401149:	48 8b 05 70 43 20 00 	mov    0x204370(%rip),%rax        # 6054c0 <stdin@@GLIBC_2.2.5>
  401150:	48 89 05 99 43 20 00 	mov    %rax,0x204399(%rip)        # 6054f0 <infile>
  401157:	41 bd 00 00 00 00    	mov    $0x0,%r13d
  40115d:	41 be 00 00 00 00    	mov    $0x0,%r14d
  401163:	e9 b9 00 00 00       	jmpq   401221 <main+0x141>
  401168:	83 e8 61             	sub    $0x61,%eax
  40116b:	3c 10                	cmp    $0x10,%al
  40116d:	0f 87 93 00 00 00    	ja     401206 <main+0x126>
  401173:	0f b6 c0             	movzbl %al,%eax
  401176:	ff 24 c5 c8 2f 40 00 	jmpq   *0x402fc8(,%rax,8)
  40117d:	48 8b 3b             	mov    (%rbx),%rdi
  401180:	e8 8b fd ff ff       	callq  400f10 <usage>
  401185:	be 5d 32 40 00       	mov    $0x40325d,%esi
  40118a:	48 8b 3d 37 43 20 00 	mov    0x204337(%rip),%rdi        # 6054c8 <optarg@@GLIBC_2.2.5>
  401191:	e8 0a fc ff ff       	callq  400da0 <fopen@plt>
  401196:	48 89 05 53 43 20 00 	mov    %rax,0x204353(%rip)        # 6054f0 <infile>
  40119d:	48 85 c0             	test   %rax,%rax
  4011a0:	75 7f                	jne    401221 <main+0x141>
  4011a2:	48 8b 15 1f 43 20 00 	mov    0x20431f(%rip),%rdx        # 6054c8 <optarg@@GLIBC_2.2.5>
  4011a9:	be 8a 2f 40 00       	mov    $0x402f8a,%esi
  4011ae:	48 8b 3d 1b 43 20 00 	mov    0x20431b(%rip),%rdi        # 6054d0 <stderr@@GLIBC_2.2.5>
  4011b5:	e8 46 fb ff ff       	callq  400d00 <fprintf@plt>
  4011ba:	b8 01 00 00 00       	mov    $0x1,%eax
  4011bf:	e9 d6 00 00 00       	jmpq   40129a <main+0x1ba>
  4011c4:	ba 10 00 00 00       	mov    $0x10,%edx
  4011c9:	be 00 00 00 00       	mov    $0x0,%esi
  4011ce:	48 8b 3d f3 42 20 00 	mov    0x2042f3(%rip),%rdi        # 6054c8 <optarg@@GLIBC_2.2.5>
  4011d5:	e8 e6 fb ff ff       	callq  400dc0 <strtoul@plt>
  4011da:	41 89 c6             	mov    %eax,%r14d
  4011dd:	eb 42                	jmp    401221 <main+0x141>
  4011df:	ba 0a 00 00 00       	mov    $0xa,%edx
  4011e4:	be 00 00 00 00       	mov    $0x0,%esi
  4011e9:	48 8b 3d d8 42 20 00 	mov    0x2042d8(%rip),%rdi        # 6054c8 <optarg@@GLIBC_2.2.5>
  4011f0:	e8 2b fb ff ff       	callq  400d20 <strtol@plt>
  4011f5:	41 89 c5             	mov    %eax,%r13d
  4011f8:	eb 27                	jmp    401221 <main+0x141>
  4011fa:	c7 05 a4 42 20 00 00 	movl   $0x0,0x2042a4(%rip)        # 6054a8 <notify>
  401201:	00 00 00 
  401204:	eb 1b                	jmp    401221 <main+0x141>
  401206:	40 0f be f6          	movsbl %sil,%esi
  40120a:	bf a7 2f 40 00       	mov    $0x402fa7,%edi
  40120f:	b8 00 00 00 00       	mov    $0x0,%eax
  401214:	e8 67 fa ff ff       	callq  400c80 <printf@plt>
  401219:	48 8b 3b             	mov    (%rbx),%rdi
  40121c:	e8 ef fc ff ff       	callq  400f10 <usage>
  401221:	48 89 ea             	mov    %rbp,%rdx
  401224:	48 89 de             	mov    %rbx,%rsi
  401227:	44 89 e7             	mov    %r12d,%edi
  40122a:	e8 81 fb ff ff       	callq  400db0 <getopt@plt>
  40122f:	89 c6                	mov    %eax,%esi
  401231:	3c ff                	cmp    $0xff,%al
  401233:	0f 85 2f ff ff ff    	jne    401168 <main+0x88>
  401239:	be 01 00 00 00       	mov    $0x1,%esi
  40123e:	44 89 ef             	mov    %r13d,%edi
  401241:	e8 4a fd ff ff       	callq  400f90 <initialize_target>
  401246:	83 3d bb 42 20 00 00 	cmpl   $0x0,0x2042bb(%rip)        # 605508 <is_checker>
  40124d:	74 25                	je     401274 <main+0x194>
  40124f:	44 3b 35 aa 42 20 00 	cmp    0x2042aa(%rip),%r14d        # 605500 <authkey>
  401256:	74 1c                	je     401274 <main+0x194>
  401258:	44 89 f6             	mov    %r14d,%esi
  40125b:	bf e0 2e 40 00       	mov    $0x402ee0,%edi
  401260:	b8 00 00 00 00       	mov    $0x0,%eax
  401265:	e8 16 fa ff ff       	callq  400c80 <printf@plt>
  40126a:	b8 00 00 00 00       	mov    $0x0,%eax
  40126f:	e8 a7 08 00 00       	callq  401b1b <check_fail>
  401274:	8b 35 8a 42 20 00    	mov    0x20428a(%rip),%esi        # 605504 <cookie>
  40127a:	bf ba 2f 40 00       	mov    $0x402fba,%edi
  40127f:	b8 00 00 00 00       	mov    $0x0,%eax
  401284:	e8 f7 f9 ff ff       	callq  400c80 <printf@plt>
  401289:	48 8b 3d 10 42 20 00 	mov    0x204210(%rip),%rdi        # 6054a0 <buf_offset>
  401290:	e8 b6 0c 00 00       	callq  401f4b <launch>
  401295:	b8 00 00 00 00       	mov    $0x0,%eax
  40129a:	5b                   	pop    %rbx
  40129b:	5d                   	pop    %rbp
  40129c:	41 5c                	pop    %r12
  40129e:	41 5d                	pop    %r13
  4012a0:	41 5e                	pop    %r14
  4012a2:	c3                   	retq   
  4012a3:	90                   	nop

00000000004012a4 <scramble>:
  4012a4:	b8 00 00 00 00       	mov    $0x0,%eax
  4012a9:	eb 11                	jmp    4012bc <scramble+0x18>
  4012ab:	69 c8 92 be 00 00    	imul   $0xbe92,%eax,%ecx
  4012b1:	01 f9                	add    %edi,%ecx
  4012b3:	89 c2                	mov    %eax,%edx
  4012b5:	89 4c 94 d0          	mov    %ecx,-0x30(%rsp,%rdx,4)
  4012b9:	83 c0 01             	add    $0x1,%eax
  4012bc:	83 f8 09             	cmp    $0x9,%eax
  4012bf:	76 ea                	jbe    4012ab <scramble+0x7>
  4012c1:	8b 44 24 f0          	mov    -0x10(%rsp),%eax
  4012c5:	69 c0 b2 36 00 00    	imul   $0x36b2,%eax,%eax
  4012cb:	89 44 24 f0          	mov    %eax,-0x10(%rsp)
  4012cf:	8b 44 24 e4          	mov    -0x1c(%rsp),%eax
  4012d3:	69 c0 3b 4d 00 00    	imul   $0x4d3b,%eax,%eax
  4012d9:	89 44 24 e4          	mov    %eax,-0x1c(%rsp)
  4012dd:	8b 44 24 dc          	mov    -0x24(%rsp),%eax
  4012e1:	69 c0 85 41 00 00    	imul   $0x4185,%eax,%eax
  4012e7:	89 44 24 dc          	mov    %eax,-0x24(%rsp)
  4012eb:	8b 44 24 e0          	mov    -0x20(%rsp),%eax
  4012ef:	69 c0 81 51 00 00    	imul   $0x5181,%eax,%eax
  4012f5:	89 44 24 e0          	mov    %eax,-0x20(%rsp)
  4012f9:	8b 44 24 f4          	mov    -0xc(%rsp),%eax
  4012fd:	69 c0 da f0 00 00    	imul   $0xf0da,%eax,%eax
  401303:	89 44 24 f4          	mov    %eax,-0xc(%rsp)
  401307:	8b 44 24 e0          	mov    -0x20(%rsp),%eax
  40130b:	69 c0 65 e1 00 00    	imul   $0xe165,%eax,%eax
  401311:	89 44 24 e0          	mov    %eax,-0x20(%rsp)
  401315:	8b 44 24 e0          	mov    -0x20(%rsp),%eax
  401319:	69 c0 78 8e 00 00    	imul   $0x8e78,%eax,%eax
  40131f:	89 44 24 e0          	mov    %eax,-0x20(%rsp)
  401323:	8b 44 24 ec          	mov    -0x14(%rsp),%eax
  401327:	69 c0 9b 2b 00 00    	imul   $0x2b9b,%eax,%eax
  40132d:	89 44 24 ec          	mov    %eax,-0x14(%rsp)
  401331:	8b 44 24 d0          	mov    -0x30(%rsp),%eax
  401335:	69 c0 2f a9 00 00    	imul   $0xa92f,%eax,%eax
  40133b:	89 44 24 d0          	mov    %eax,-0x30(%rsp)
  40133f:	8b 44 24 f0          	mov    -0x10(%rsp),%eax
  401343:	69 c0 7e d9 00 00    	imul   $0xd97e,%eax,%eax
  401349:	89 44 24 f0          	mov    %eax,-0x10(%rsp)
  40134d:	8b 44 24 e0          	mov    -0x20(%rsp),%eax
  401351:	69 c0 5c 20 00 00    	imul   $0x205c,%eax,%eax
  401357:	89 44 24 e0          	mov    %eax,-0x20(%rsp)
  40135b:	8b 44 24 d8          	mov    -0x28(%rsp),%eax
  40135f:	69 c0 a6 84 00 00    	imul   $0x84a6,%eax,%eax
  401365:	89 44 24 d8          	mov    %eax,-0x28(%rsp)
  401369:	8b 44 24 e8          	mov    -0x18(%rsp),%eax
  40136d:	69 c0 fb 98 00 00    	imul   $0x98fb,%eax,%eax
  401373:	89 44 24 e8          	mov    %eax,-0x18(%rsp)
  401377:	8b 44 24 ec          	mov    -0x14(%rsp),%eax
  40137b:	69 c0 9a 0e 00 00    	imul   $0xe9a,%eax,%eax
  401381:	89 44 24 ec          	mov    %eax,-0x14(%rsp)
  401385:	8b 44 24 d0          	mov    -0x30(%rsp),%eax
  401389:	69 c0 dc 6e 00 00    	imul   $0x6edc,%eax,%eax
  40138f:	89 44 24 d0          	mov    %eax,-0x30(%rsp)
  401393:	8b 44 24 dc          	mov    -0x24(%rsp),%eax
  401397:	89 c2                	mov    %eax,%edx
  401399:	c1 e2 07             	shl    $0x7,%edx
  40139c:	29 c2                	sub    %eax,%edx
  40139e:	89 54 24 dc          	mov    %edx,-0x24(%rsp)
  4013a2:	8b 44 24 ec          	mov    -0x14(%rsp),%eax
  4013a6:	69 c0 2a 7e 00 00    	imul   $0x7e2a,%eax,%eax
  4013ac:	89 44 24 ec          	mov    %eax,-0x14(%rsp)
  4013b0:	8b 44 24 f4          	mov    -0xc(%rsp),%eax
  4013b4:	69 c0 86 0b 00 00    	imul   $0xb86,%eax,%eax
  4013ba:	89 44 24 f4          	mov    %eax,-0xc(%rsp)
  4013be:	8b 44 24 ec          	mov    -0x14(%rsp),%eax
  4013c2:	69 c0 54 94 00 00    	imul   $0x9454,%eax,%eax
  4013c8:	89 44 24 ec          	mov    %eax,-0x14(%rsp)
  4013cc:	8b 44 24 d0          	mov    -0x30(%rsp),%eax
  4013d0:	69 c0 28 fb 00 00    	imul   $0xfb28,%eax,%eax
  4013d6:	89 44 24 d0          	mov    %eax,-0x30(%rsp)
  4013da:	8b 44 24 dc          	mov    -0x24(%rsp),%eax
  4013de:	69 c0 c5 42 00 00    	imul   $0x42c5,%eax,%eax
  4013e4:	89 44 24 dc          	mov    %eax,-0x24(%rsp)
  4013e8:	8b 44 24 ec          	mov    -0x14(%rsp),%eax
  4013ec:	69 c0 4c f4 00 00    	imul   $0xf44c,%eax,%eax
  4013f2:	89 44 24 ec          	mov    %eax,-0x14(%rsp)
  4013f6:	8b 44 24 e0          	mov    -0x20(%rsp),%eax
  4013fa:	69 c0 f5 18 00 00    	imul   $0x18f5,%eax,%eax
  401400:	89 44 24 e0          	mov    %eax,-0x20(%rsp)
  401404:	8b 44 24 ec          	mov    -0x14(%rsp),%eax
  401408:	69 c0 00 0e 00 00    	imul   $0xe00,%eax,%eax
  40140e:	89 44 24 ec          	mov    %eax,-0x14(%rsp)
  401412:	8b 44 24 f0          	mov    -0x10(%rsp),%eax
  401416:	69 c0 04 49 00 00    	imul   $0x4904,%eax,%eax
  40141c:	89 44 24 f0          	mov    %eax,-0x10(%rsp)
  401420:	8b 44 24 e8          	mov    -0x18(%rsp),%eax
  401424:	69 c0 e5 00 00 00    	imul   $0xe5,%eax,%eax
  40142a:	89 44 24 e8          	mov    %eax,-0x18(%rsp)
  40142e:	8b 44 24 e4          	mov    -0x1c(%rsp),%eax
  401432:	69 c0 51 c9 00 00    	imul   $0xc951,%eax,%eax
  401438:	89 44 24 e4          	mov    %eax,-0x1c(%rsp)
  40143c:	8b 44 24 e8          	mov    -0x18(%rsp),%eax
  401440:	69 c0 48 fa 00 00    	imul   $0xfa48,%eax,%eax
  401446:	89 44 24 e8          	mov    %eax,-0x18(%rsp)
  40144a:	8b 44 24 f0          	mov    -0x10(%rsp),%eax
  40144e:	69 c0 4e a5 00 00    	imul   $0xa54e,%eax,%eax
  401454:	89 44 24 f0          	mov    %eax,-0x10(%rsp)
  401458:	8b 44 24 e0          	mov    -0x20(%rsp),%eax
  40145c:	69 c0 39 a4 00 00    	imul   $0xa439,%eax,%eax
  401462:	89 44 24 e0          	mov    %eax,-0x20(%rsp)
  401466:	8b 44 24 f4          	mov    -0xc(%rsp),%eax
  40146a:	69 c0 4d a4 00 00    	imul   $0xa44d,%eax,%eax
  401470:	89 44 24 f4          	mov    %eax,-0xc(%rsp)
  401474:	8b 44 24 dc          	mov    -0x24(%rsp),%eax
  401478:	69 c0 b9 b9 00 00    	imul   $0xb9b9,%eax,%eax
  40147e:	89 44 24 dc          	mov    %eax,-0x24(%rsp)
  401482:	8b 44 24 d0          	mov    -0x30(%rsp),%eax
  401486:	69 c0 74 f2 00 00    	imul   $0xf274,%eax,%eax
  40148c:	89 44 24 d0          	mov    %eax,-0x30(%rsp)
  401490:	8b 44 24 d0          	mov    -0x30(%rsp),%eax
  401494:	69 c0 27 e2 00 00    	imul   $0xe227,%eax,%eax
  40149a:	89 44 24 d0          	mov    %eax,-0x30(%rsp)
  40149e:	8b 44 24 d4          	mov    -0x2c(%rsp),%eax
  4014a2:	69 c0 47 22 00 00    	imul   $0x2247,%eax,%eax
  4014a8:	89 44 24 d4          	mov    %eax,-0x2c(%rsp)
  4014ac:	8b 44 24 f0          	mov    -0x10(%rsp),%eax
  4014b0:	69 c0 f6 0b 00 00    	imul   $0xbf6,%eax,%eax
  4014b6:	89 44 24 f0          	mov    %eax,-0x10(%rsp)
  4014ba:	8b 44 24 e8          	mov    -0x18(%rsp),%eax
  4014be:	69 c0 dc b9 00 00    	imul   $0xb9dc,%eax,%eax
  4014c4:	89 44 24 e8          	mov    %eax,-0x18(%rsp)
  4014c8:	8b 44 24 e8          	mov    -0x18(%rsp),%eax
  4014cc:	69 c0 4a 36 00 00    	imul   $0x364a,%eax,%eax
  4014d2:	89 44 24 e8          	mov    %eax,-0x18(%rsp)
  4014d6:	8b 44 24 d8          	mov    -0x28(%rsp),%eax
  4014da:	69 c0 2a 20 00 00    	imul   $0x202a,%eax,%eax
  4014e0:	89 44 24 d8          	mov    %eax,-0x28(%rsp)
  4014e4:	8b 44 24 e8          	mov    -0x18(%rsp),%eax
  4014e8:	69 c0 f7 94 00 00    	imul   $0x94f7,%eax,%eax
  4014ee:	89 44 24 e8          	mov    %eax,-0x18(%rsp)
  4014f2:	8b 44 24 d8          	mov    -0x28(%rsp),%eax
  4014f6:	69 c0 c9 2b 00 00    	imul   $0x2bc9,%eax,%eax
  4014fc:	89 44 24 d8          	mov    %eax,-0x28(%rsp)
  401500:	8b 44 24 e8          	mov    -0x18(%rsp),%eax
  401504:	69 c0 8e d2 00 00    	imul   $0xd28e,%eax,%eax
  40150a:	89 44 24 e8          	mov    %eax,-0x18(%rsp)
  40150e:	8b 44 24 dc          	mov    -0x24(%rsp),%eax
  401512:	69 c0 67 1b 00 00    	imul   $0x1b67,%eax,%eax
  401518:	89 44 24 dc          	mov    %eax,-0x24(%rsp)
  40151c:	8b 44 24 e4          	mov    -0x1c(%rsp),%eax
  401520:	69 c0 66 57 00 00    	imul   $0x5766,%eax,%eax
  401526:	89 44 24 e4          	mov    %eax,-0x1c(%rsp)
  40152a:	8b 44 24 d0          	mov    -0x30(%rsp),%eax
  40152e:	69 c0 b9 d5 00 00    	imul   $0xd5b9,%eax,%eax
  401534:	89 44 24 d0          	mov    %eax,-0x30(%rsp)
  401538:	8b 44 24 e0          	mov    -0x20(%rsp),%eax
  40153c:	69 c0 e0 d4 00 00    	imul   $0xd4e0,%eax,%eax
  401542:	89 44 24 e0          	mov    %eax,-0x20(%rsp)
  401546:	8b 44 24 d4          	mov    -0x2c(%rsp),%eax
  40154a:	69 c0 59 a0 00 00    	imul   $0xa059,%eax,%eax
  401550:	89 44 24 d4          	mov    %eax,-0x2c(%rsp)
  401554:	8b 44 24 ec          	mov    -0x14(%rsp),%eax
  401558:	69 c0 7e 9c 00 00    	imul   $0x9c7e,%eax,%eax
  40155e:	89 44 24 ec          	mov    %eax,-0x14(%rsp)
  401562:	8b 44 24 dc          	mov    -0x24(%rsp),%eax
  401566:	69 c0 d9 53 00 00    	imul   $0x53d9,%eax,%eax
  40156c:	89 44 24 dc          	mov    %eax,-0x24(%rsp)
  401570:	8b 44 24 d4          	mov    -0x2c(%rsp),%eax
  401574:	69 c0 95 19 00 00    	imul   $0x1995,%eax,%eax
  40157a:	89 44 24 d4          	mov    %eax,-0x2c(%rsp)
  40157e:	8b 44 24 ec          	mov    -0x14(%rsp),%eax
  401582:	69 c0 f4 5b 00 00    	imul   $0x5bf4,%eax,%eax
  401588:	89 44 24 ec          	mov    %eax,-0x14(%rsp)
  40158c:	8b 44 24 d8          	mov    -0x28(%rsp),%eax
  401590:	69 c0 2d db 00 00    	imul   $0xdb2d,%eax,%eax
  401596:	89 44 24 d8          	mov    %eax,-0x28(%rsp)
  40159a:	8b 44 24 ec          	mov    -0x14(%rsp),%eax
  40159e:	69 c0 cd 25 00 00    	imul   $0x25cd,%eax,%eax
  4015a4:	89 44 24 ec          	mov    %eax,-0x14(%rsp)
  4015a8:	8b 44 24 e8          	mov    -0x18(%rsp),%eax
  4015ac:	69 c0 a2 e8 00 00    	imul   $0xe8a2,%eax,%eax
  4015b2:	89 44 24 e8          	mov    %eax,-0x18(%rsp)
  4015b6:	8b 44 24 e4          	mov    -0x1c(%rsp),%eax
  4015ba:	69 c0 c2 55 00 00    	imul   $0x55c2,%eax,%eax
  4015c0:	89 44 24 e4          	mov    %eax,-0x1c(%rsp)
  4015c4:	8b 44 24 dc          	mov    -0x24(%rsp),%eax
  4015c8:	69 c0 26 af 00 00    	imul   $0xaf26,%eax,%eax
  4015ce:	89 44 24 dc          	mov    %eax,-0x24(%rsp)
  4015d2:	8b 44 24 ec          	mov    -0x14(%rsp),%eax
  4015d6:	69 c0 75 13 00 00    	imul   $0x1375,%eax,%eax
  4015dc:	89 44 24 ec          	mov    %eax,-0x14(%rsp)
  4015e0:	8b 44 24 f4          	mov    -0xc(%rsp),%eax
  4015e4:	69 c0 a5 76 00 00    	imul   $0x76a5,%eax,%eax
  4015ea:	89 44 24 f4          	mov    %eax,-0xc(%rsp)
  4015ee:	8b 44 24 e4          	mov    -0x1c(%rsp),%eax
  4015f2:	69 c0 8c 4e 00 00    	imul   $0x4e8c,%eax,%eax
  4015f8:	89 44 24 e4          	mov    %eax,-0x1c(%rsp)
  4015fc:	8b 44 24 dc          	mov    -0x24(%rsp),%eax
  401600:	69 c0 92 ef 00 00    	imul   $0xef92,%eax,%eax
  401606:	89 44 24 dc          	mov    %eax,-0x24(%rsp)
  40160a:	8b 44 24 e8          	mov    -0x18(%rsp),%eax
  40160e:	69 c0 ab c9 00 00    	imul   $0xc9ab,%eax,%eax
  401614:	89 44 24 e8          	mov    %eax,-0x18(%rsp)
  401618:	8b 44 24 e0          	mov    -0x20(%rsp),%eax
  40161c:	69 c0 4c 9e 00 00    	imul   $0x9e4c,%eax,%eax
  401622:	89 44 24 e0          	mov    %eax,-0x20(%rsp)
  401626:	8b 44 24 f0          	mov    -0x10(%rsp),%eax
  40162a:	69 c0 0c 53 00 00    	imul   $0x530c,%eax,%eax
  401630:	89 44 24 f0          	mov    %eax,-0x10(%rsp)
  401634:	8b 44 24 d4          	mov    -0x2c(%rsp),%eax
  401638:	69 c0 d1 fc 00 00    	imul   $0xfcd1,%eax,%eax
  40163e:	89 44 24 d4          	mov    %eax,-0x2c(%rsp)
  401642:	8b 44 24 d0          	mov    -0x30(%rsp),%eax
  401646:	69 c0 6f b9 00 00    	imul   $0xb96f,%eax,%eax
  40164c:	89 44 24 d0          	mov    %eax,-0x30(%rsp)
  401650:	8b 44 24 ec          	mov    -0x14(%rsp),%eax
  401654:	69 c0 06 1d 00 00    	imul   $0x1d06,%eax,%eax
  40165a:	89 44 24 ec          	mov    %eax,-0x14(%rsp)
  40165e:	8b 44 24 e0          	mov    -0x20(%rsp),%eax
  401662:	69 c0 f1 3b 00 00    	imul   $0x3bf1,%eax,%eax
  401668:	89 44 24 e0          	mov    %eax,-0x20(%rsp)
  40166c:	8b 44 24 e4          	mov    -0x1c(%rsp),%eax
  401670:	69 c0 33 2b 00 00    	imul   $0x2b33,%eax,%eax
  401676:	89 44 24 e4          	mov    %eax,-0x1c(%rsp)
  40167a:	8b 44 24 d0          	mov    -0x30(%rsp),%eax
  40167e:	69 c0 ab 09 00 00    	imul   $0x9ab,%eax,%eax
  401684:	89 44 24 d0          	mov    %eax,-0x30(%rsp)
  401688:	8b 44 24 d4          	mov    -0x2c(%rsp),%eax
  40168c:	69 c0 b7 a7 00 00    	imul   $0xa7b7,%eax,%eax
  401692:	89 44 24 d4          	mov    %eax,-0x2c(%rsp)
  401696:	8b 44 24 e4          	mov    -0x1c(%rsp),%eax
  40169a:	69 c0 6f 91 00 00    	imul   $0x916f,%eax,%eax
  4016a0:	89 44 24 e4          	mov    %eax,-0x1c(%rsp)
  4016a4:	8b 44 24 e4          	mov    -0x1c(%rsp),%eax
  4016a8:	69 c0 f8 e0 00 00    	imul   $0xe0f8,%eax,%eax
  4016ae:	89 44 24 e4          	mov    %eax,-0x1c(%rsp)
  4016b2:	8b 44 24 ec          	mov    -0x14(%rsp),%eax
  4016b6:	69 c0 92 d8 00 00    	imul   $0xd892,%eax,%eax
  4016bc:	89 44 24 ec          	mov    %eax,-0x14(%rsp)
  4016c0:	8b 44 24 e0          	mov    -0x20(%rsp),%eax
  4016c4:	69 c0 c2 d3 00 00    	imul   $0xd3c2,%eax,%eax
  4016ca:	89 44 24 e0          	mov    %eax,-0x20(%rsp)
  4016ce:	8b 44 24 d8          	mov    -0x28(%rsp),%eax
  4016d2:	69 c0 a9 25 00 00    	imul   $0x25a9,%eax,%eax
  4016d8:	89 44 24 d8          	mov    %eax,-0x28(%rsp)
  4016dc:	8b 44 24 f0          	mov    -0x10(%rsp),%eax
  4016e0:	69 c0 64 4b 00 00    	imul   $0x4b64,%eax,%eax
  4016e6:	89 44 24 f0          	mov    %eax,-0x10(%rsp)
  4016ea:	8b 44 24 f0          	mov    -0x10(%rsp),%eax
  4016ee:	69 c0 c7 87 00 00    	imul   $0x87c7,%eax,%eax
  4016f4:	89 44 24 f0          	mov    %eax,-0x10(%rsp)
  4016f8:	8b 44 24 d4          	mov    -0x2c(%rsp),%eax
  4016fc:	69 c0 59 59 00 00    	imul   $0x5959,%eax,%eax
  401702:	89 44 24 d4          	mov    %eax,-0x2c(%rsp)
  401706:	8b 44 24 f0          	mov    -0x10(%rsp),%eax
  40170a:	69 c0 7a 24 00 00    	imul   $0x247a,%eax,%eax
  401710:	89 44 24 f0          	mov    %eax,-0x10(%rsp)
  401714:	8b 44 24 d4          	mov    -0x2c(%rsp),%eax
  401718:	69 c0 b8 81 00 00    	imul   $0x81b8,%eax,%eax
  40171e:	89 44 24 d4          	mov    %eax,-0x2c(%rsp)
  401722:	8b 44 24 ec          	mov    -0x14(%rsp),%eax
  401726:	69 c0 91 6c 00 00    	imul   $0x6c91,%eax,%eax
  40172c:	89 44 24 ec          	mov    %eax,-0x14(%rsp)
  401730:	8b 44 24 d0          	mov    -0x30(%rsp),%eax
  401734:	69 c0 4c f3 00 00    	imul   $0xf34c,%eax,%eax
  40173a:	89 44 24 d0          	mov    %eax,-0x30(%rsp)
  40173e:	8b 44 24 d4          	mov    -0x2c(%rsp),%eax
  401742:	69 c0 f3 96 00 00    	imul   $0x96f3,%eax,%eax
  401748:	89 44 24 d4          	mov    %eax,-0x2c(%rsp)
  40174c:	8b 44 24 e0          	mov    -0x20(%rsp),%eax
  401750:	69 c0 41 0a 00 00    	imul   $0xa41,%eax,%eax
  401756:	89 44 24 e0          	mov    %eax,-0x20(%rsp)
  40175a:	8b 44 24 f0          	mov    -0x10(%rsp),%eax
  40175e:	69 c0 55 32 00 00    	imul   $0x3255,%eax,%eax
  401764:	89 44 24 f0          	mov    %eax,-0x10(%rsp)
  401768:	8b 44 24 f4          	mov    -0xc(%rsp),%eax
  40176c:	8d 04 40             	lea    (%rax,%rax,2),%eax
  40176f:	c1 e0 02             	shl    $0x2,%eax
  401772:	89 44 24 f4          	mov    %eax,-0xc(%rsp)
  401776:	8b 44 24 e0          	mov    -0x20(%rsp),%eax
  40177a:	69 c0 d6 08 00 00    	imul   $0x8d6,%eax,%eax
  401780:	89 44 24 e0          	mov    %eax,-0x20(%rsp)
  401784:	8b 44 24 f0          	mov    -0x10(%rsp),%eax
  401788:	69 c0 aa 68 00 00    	imul   $0x68aa,%eax,%eax
  40178e:	89 44 24 f0          	mov    %eax,-0x10(%rsp)
  401792:	8b 44 24 e0          	mov    -0x20(%rsp),%eax
  401796:	69 c0 a2 38 00 00    	imul   $0x38a2,%eax,%eax
  40179c:	89 44 24 e0          	mov    %eax,-0x20(%rsp)
  4017a0:	8b 44 24 e4          	mov    -0x1c(%rsp),%eax
  4017a4:	69 c0 87 08 00 00    	imul   $0x887,%eax,%eax
  4017aa:	89 44 24 e4          	mov    %eax,-0x1c(%rsp)
  4017ae:	8b 44 24 dc          	mov    -0x24(%rsp),%eax
  4017b2:	69 c0 c0 ff 00 00    	imul   $0xffc0,%eax,%eax
  4017b8:	89 44 24 dc          	mov    %eax,-0x24(%rsp)
  4017bc:	ba 00 00 00 00       	mov    $0x0,%edx
  4017c1:	b8 00 00 00 00       	mov    $0x0,%eax
  4017c6:	eb 0b                	jmp    4017d3 <scramble+0x52f>
  4017c8:	89 d1                	mov    %edx,%ecx
  4017ca:	8b 4c 8c d0          	mov    -0x30(%rsp,%rcx,4),%ecx
  4017ce:	01 c8                	add    %ecx,%eax
  4017d0:	83 c2 01             	add    $0x1,%edx
  4017d3:	83 fa 09             	cmp    $0x9,%edx
  4017d6:	76 f0                	jbe    4017c8 <scramble+0x524>
  4017d8:	f3 c3                	repz retq 
  4017da:	66 90                	xchg   %ax,%ax

00000000004017dc <getbuf>:
  4017dc:	48 83 ec 38          	sub    $0x38,%rsp
  4017e0:	48 89 e7             	mov    %rsp,%rdi
  4017e3:	e8 62 03 00 00       	callq  401b4a <Gets>
  4017e8:	b8 01 00 00 00       	mov    $0x1,%eax
  4017ed:	48 83 c4 38          	add    $0x38,%rsp
  4017f1:	c3                   	retq   
  4017f2:	66 90                	xchg   %ax,%ax

00000000004017f4 <touch1>:
  4017f4:	48 83 ec 08          	sub    $0x8,%rsp
  4017f8:	c7 05 fa 3c 20 00 01 	movl   $0x1,0x203cfa(%rip)        # 6054fc <vlevel>
  4017ff:	00 00 00 
  401802:	bf b2 30 40 00       	mov    $0x4030b2,%edi
  401807:	e8 44 f4 ff ff       	callq  400c50 <puts@plt>
  40180c:	bf 01 00 00 00       	mov    $0x1,%edi
  401811:	e8 23 05 00 00       	callq  401d39 <validate>
  401816:	bf 00 00 00 00       	mov    $0x0,%edi
  40181b:	e8 d0 f5 ff ff       	callq  400df0 <exit@plt>

0000000000401820 <touch2>:
  401820:	48 83 ec 08          	sub    $0x8,%rsp
  401824:	89 fe                	mov    %edi,%esi
  401826:	c7 05 cc 3c 20 00 02 	movl   $0x2,0x203ccc(%rip)        # 6054fc <vlevel>
  40182d:	00 00 00 
  401830:	3b 3d ce 3c 20 00    	cmp    0x203cce(%rip),%edi        # 605504 <cookie>
  401836:	75 1b                	jne    401853 <touch2+0x33>
  401838:	bf d8 30 40 00       	mov    $0x4030d8,%edi
  40183d:	b8 00 00 00 00       	mov    $0x0,%eax
  401842:	e8 39 f4 ff ff       	callq  400c80 <printf@plt>
  401847:	bf 02 00 00 00       	mov    $0x2,%edi
  40184c:	e8 e8 04 00 00       	callq  401d39 <validate>
  401851:	eb 19                	jmp    40186c <touch2+0x4c>
  401853:	bf 00 31 40 00       	mov    $0x403100,%edi
  401858:	b8 00 00 00 00       	mov    $0x0,%eax
  40185d:	e8 1e f4 ff ff       	callq  400c80 <printf@plt>
  401862:	bf 02 00 00 00       	mov    $0x2,%edi
  401867:	e8 7f 05 00 00       	callq  401deb <fail>
  40186c:	bf 00 00 00 00       	mov    $0x0,%edi
  401871:	e8 7a f5 ff ff       	callq  400df0 <exit@plt>

0000000000401876 <hexmatch>:
  401876:	41 54                	push   %r12
  401878:	55                   	push   %rbp
  401879:	53                   	push   %rbx
  40187a:	48 83 ec 70          	sub    $0x70,%rsp
  40187e:	41 89 fc             	mov    %edi,%r12d
  401881:	48 89 f5             	mov    %rsi,%rbp
  401884:	e8 c7 f4 ff ff       	callq  400d50 <random@plt>
  401889:	48 89 c1             	mov    %rax,%rcx
  40188c:	48 ba 0b d7 a3 70 3d 	mov    $0xa3d70a3d70a3d70b,%rdx
  401893:	0a d7 a3 
  401896:	48 f7 ea             	imul   %rdx
  401899:	48 8d 04 0a          	lea    (%rdx,%rcx,1),%rax
  40189d:	48 c1 f8 06          	sar    $0x6,%rax
  4018a1:	48 89 ce             	mov    %rcx,%rsi
  4018a4:	48 c1 fe 3f          	sar    $0x3f,%rsi
  4018a8:	48 29 f0             	sub    %rsi,%rax
  4018ab:	48 8d 04 80          	lea    (%rax,%rax,4),%rax
  4018af:	48 8d 04 80          	lea    (%rax,%rax,4),%rax
  4018b3:	48 c1 e0 02          	shl    $0x2,%rax
  4018b7:	48 29 c1             	sub    %rax,%rcx
  4018ba:	48 8d 1c 0c          	lea    (%rsp,%rcx,1),%rbx
  4018be:	44 89 e2             	mov    %r12d,%edx
  4018c1:	be cf 30 40 00       	mov    $0x4030cf,%esi
  4018c6:	48 89 df             	mov    %rbx,%rdi
  4018c9:	b8 00 00 00 00       	mov    $0x0,%eax
  4018ce:	e8 0d f5 ff ff       	callq  400de0 <sprintf@plt>
  4018d3:	ba 09 00 00 00       	mov    $0x9,%edx
  4018d8:	48 89 de             	mov    %rbx,%rsi
  4018db:	48 89 ef             	mov    %rbp,%rdi
  4018de:	e8 4d f3 ff ff       	callq  400c30 <strncmp@plt>
  4018e3:	85 c0                	test   %eax,%eax
  4018e5:	0f 94 c0             	sete   %al
  4018e8:	0f b6 c0             	movzbl %al,%eax
  4018eb:	48 83 c4 70          	add    $0x70,%rsp
  4018ef:	5b                   	pop    %rbx
  4018f0:	5d                   	pop    %rbp
  4018f1:	41 5c                	pop    %r12
  4018f3:	c3                   	retq   

00000000004018f4 <touch3>:
  4018f4:	53                   	push   %rbx
  4018f5:	48 89 fb             	mov    %rdi,%rbx
  4018f8:	c7 05 fa 3b 20 00 03 	movl   $0x3,0x203bfa(%rip)        # 6054fc <vlevel>
  4018ff:	00 00 00 
  401902:	48 89 fe             	mov    %rdi,%rsi
  401905:	8b 3d f9 3b 20 00    	mov    0x203bf9(%rip),%edi        # 605504 <cookie>
  40190b:	e8 66 ff ff ff       	callq  401876 <hexmatch>
  401910:	85 c0                	test   %eax,%eax
  401912:	74 1e                	je     401932 <touch3+0x3e>
  401914:	48 89 de             	mov    %rbx,%rsi
  401917:	bf 28 31 40 00       	mov    $0x403128,%edi
  40191c:	b8 00 00 00 00       	mov    $0x0,%eax
  401921:	e8 5a f3 ff ff       	callq  400c80 <printf@plt>
  401926:	bf 03 00 00 00       	mov    $0x3,%edi
  40192b:	e8 09 04 00 00       	callq  401d39 <validate>
  401930:	eb 1c                	jmp    40194e <touch3+0x5a>
  401932:	48 89 de             	mov    %rbx,%rsi
  401935:	bf 50 31 40 00       	mov    $0x403150,%edi
  40193a:	b8 00 00 00 00       	mov    $0x0,%eax
  40193f:	e8 3c f3 ff ff       	callq  400c80 <printf@plt>
  401944:	bf 03 00 00 00       	mov    $0x3,%edi
  401949:	e8 9d 04 00 00       	callq  401deb <fail>
  40194e:	bf 00 00 00 00       	mov    $0x0,%edi
  401953:	e8 98 f4 ff ff       	callq  400df0 <exit@plt>

0000000000401958 <test>:
  401958:	48 83 ec 08          	sub    $0x8,%rsp
  40195c:	b8 00 00 00 00       	mov    $0x0,%eax
  401961:	e8 76 fe ff ff       	callq  4017dc <getbuf>
  401966:	89 c6                	mov    %eax,%esi
  401968:	bf 78 31 40 00       	mov    $0x403178,%edi
  40196d:	b8 00 00 00 00       	mov    $0x0,%eax
  401972:	e8 09 f3 ff ff       	callq  400c80 <printf@plt>
  401977:	48 83 c4 08          	add    $0x8,%rsp
  40197b:	c3                   	retq   

000000000040197c <start_farm>:
  40197c:	b8 01 00 00 00       	mov    $0x1,%eax
  401981:	c3                   	retq   

0000000000401982 <getval_457>:
  401982:	b8 fb 48 8d c7       	mov    $0xc78d48fb,%eax
  401987:	c3                   	retq   

0000000000401988 <getval_298>:
  401988:	b8 0e 86 58 94       	mov    $0x9458860e,%eax
  40198d:	c3                   	retq   

000000000040198e <addval_289>:
  40198e:	8d 87 35 48 89 c7    	lea    -0x3876b7cb(%rdi),%eax
  401994:	c3                   	retq   

0000000000401995 <addval_225>:
  401995:	8d 87 a2 48 81 c7    	lea    -0x387eb75e(%rdi),%eax
  40199b:	c3                   	retq   

000000000040199c <addval_283>:
  40199c:	8d 87 09 19 58 90    	lea    -0x6fa7e6f7(%rdi),%eax
  4019a2:	c3                   	retq   

00000000004019a3 <getval_497>:
  4019a3:	b8 d8 90 90 90       	mov    $0x909090d8,%eax
  4019a8:	c3                   	retq   

00000000004019a9 <addval_312>:
  4019a9:	8d 87 48 89 c7 c3    	lea    -0x3c3876b8(%rdi),%eax
  4019af:	c3                   	retq   

00000000004019b0 <setval_394>:
  4019b0:	c7 07 2b 0d 58 90    	movl   $0x90580d2b,(%rdi)
  4019b6:	c3                   	retq   

00000000004019b7 <mid_farm>:
  4019b7:	b8 01 00 00 00       	mov    $0x1,%eax
  4019bc:	c3                   	retq   

00000000004019bd <add_xy>:
  4019bd:	48 8d 04 37          	lea    (%rdi,%rsi,1),%rax
  4019c1:	c3                   	retq   

00000000004019c2 <addval_102>:
  4019c2:	8d 87 89 ce 94 c9    	lea    -0x366b3177(%rdi),%eax
  4019c8:	c3                   	retq   

00000000004019c9 <setval_326>:
  4019c9:	c7 07 b2 36 89 d1    	movl   $0xd18936b2,(%rdi)
  4019cf:	c3                   	retq   

00000000004019d0 <addval_350>:
  4019d0:	8d 87 4a 89 e0 c3    	lea    -0x3c1f76b6(%rdi),%eax
  4019d6:	c3                   	retq   

00000000004019d7 <setval_461>:
  4019d7:	c7 07 48 89 e0 c7    	movl   $0xc7e08948,(%rdi)
  4019dd:	c3                   	retq   

00000000004019de <getval_113>:
  4019de:	b8 88 c2 08 db       	mov    $0xdb08c288,%eax
  4019e3:	c3                   	retq   

00000000004019e4 <addval_487>:
  4019e4:	8d 87 89 ce 60 c0    	lea    -0x3f9f3177(%rdi),%eax
  4019ea:	c3                   	retq   

00000000004019eb <addval_310>:
  4019eb:	8d 87 48 89 e0 c3    	lea    -0x3c1f76b8(%rdi),%eax
  4019f1:	c3                   	retq   

00000000004019f2 <addval_335>:
  4019f2:	8d 87 89 c2 30 c9    	lea    -0x36cf3d77(%rdi),%eax
  4019f8:	c3                   	retq   

00000000004019f9 <addval_199>:
  4019f9:	8d 87 48 89 e0 92    	lea    -0x6d1f76b8(%rdi),%eax
  4019ff:	c3                   	retq   

0000000000401a00 <addval_183>:
  401a00:	8d 87 89 d1 30 c9    	lea    -0x36cf2e77(%rdi),%eax
  401a06:	c3                   	retq   

0000000000401a07 <setval_209>:
  401a07:	c7 07 89 ce 28 c0    	movl   $0xc028ce89,(%rdi)
  401a0d:	c3                   	retq   

0000000000401a0e <addval_489>:
  401a0e:	8d 87 89 c2 08 c0    	lea    -0x3ff73d77(%rdi),%eax
  401a14:	c3                   	retq   

0000000000401a15 <addval_343>:
  401a15:	8d 87 48 89 e0 c2    	lea    -0x3d1f76b8(%rdi),%eax
  401a1b:	c3                   	retq   

0000000000401a1c <addval_481>:
  401a1c:	8d 87 89 d1 90 c2    	lea    -0x3d6f2e77(%rdi),%eax
  401a22:	c3                   	retq   

0000000000401a23 <addval_432>:
  401a23:	8d 87 c9 d1 c3 60    	lea    0x60c3d1c9(%rdi),%eax
  401a29:	c3                   	retq   

0000000000401a2a <getval_415>:
  401a2a:	b8 89 c2 84 db       	mov    $0xdb84c289,%eax
  401a2f:	c3                   	retq   

0000000000401a30 <addval_157>:
  401a30:	8d 87 89 c2 92 90    	lea    -0x6f6d3d77(%rdi),%eax
  401a36:	c3                   	retq   

0000000000401a37 <setval_321>:
  401a37:	c7 07 25 40 89 e0    	movl   $0xe0894025,(%rdi)
  401a3d:	c3                   	retq   

0000000000401a3e <addval_133>:
  401a3e:	8d 87 6b 48 89 e0    	lea    -0x1f76b795(%rdi),%eax
  401a44:	c3                   	retq   

0000000000401a45 <getval_340>:
  401a45:	b8 89 ce 20 d2       	mov    $0xd220ce89,%eax
  401a4a:	c3                   	retq   

0000000000401a4b <setval_347>:
  401a4b:	c7 07 48 89 e0 c1    	movl   $0xc1e08948,(%rdi)
  401a51:	c3                   	retq   

0000000000401a52 <getval_117>:
  401a52:	b8 a9 d1 38 c0       	mov    $0xc038d1a9,%eax
  401a57:	c3                   	retq   

0000000000401a58 <addval_192>:
  401a58:	8d 87 89 d1 20 c9    	lea    -0x36df2e77(%rdi),%eax
  401a5e:	c3                   	retq   

0000000000401a5f <setval_226>:
  401a5f:	c7 07 09 c2 08 c9    	movl   $0xc908c209,(%rdi)
  401a65:	c3                   	retq   

0000000000401a66 <addval_125>:
  401a66:	8d 87 89 ce 08 c0    	lea    -0x3ff73177(%rdi),%eax
  401a6c:	c3                   	retq   

0000000000401a6d <getval_473>:
  401a6d:	b8 a9 c2 20 d2       	mov    $0xd220c2a9,%eax
  401a72:	c3                   	retq   

0000000000401a73 <getval_185>:
  401a73:	b8 89 ce 18 d2       	mov    $0xd218ce89,%eax
  401a78:	c3                   	retq   

0000000000401a79 <addval_155>:
  401a79:	8d 87 89 d1 78 db    	lea    -0x24872e77(%rdi),%eax
  401a7f:	c3                   	retq   

0000000000401a80 <getval_182>:
  401a80:	b8 89 ce c4 db       	mov    $0xdbc4ce89,%eax
  401a85:	c3                   	retq   

0000000000401a86 <addval_108>:
  401a86:	8d 87 89 ce 60 c0    	lea    -0x3f9f3177(%rdi),%eax
  401a8c:	c3                   	retq   

0000000000401a8d <addval_319>:
  401a8d:	8d 87 89 d1 60 c0    	lea    -0x3f9f2e77(%rdi),%eax
  401a93:	c3                   	retq   

0000000000401a94 <setval_485>:
  401a94:	c7 07 89 c2 18 db    	movl   $0xdb18c289,(%rdi)
  401a9a:	c3                   	retq   

0000000000401a9b <end_farm>:
  401a9b:	b8 01 00 00 00       	mov    $0x1,%eax
  401aa0:	c3                   	retq   
  401aa1:	66 2e 0f 1f 84 00 00 	nopw   %cs:0x0(%rax,%rax,1)
  401aa8:	00 00 00 
  401aab:	0f 1f 44 00 00       	nopl   0x0(%rax,%rax,1)

0000000000401ab0 <save_char>:
  401ab0:	8b 05 6e 46 20 00    	mov    0x20466e(%rip),%eax        # 606124 <gets_cnt>
  401ab6:	3d ff 03 00 00       	cmp    $0x3ff,%eax
  401abb:	7f 49                	jg     401b06 <save_char+0x56>
  401abd:	8d 14 40             	lea    (%rax,%rax,2),%edx
  401ac0:	89 f9                	mov    %edi,%ecx
  401ac2:	c0 e9 04             	shr    $0x4,%cl
  401ac5:	83 e1 0f             	and    $0xf,%ecx
  401ac8:	0f b6 b1 a0 34 40 00 	movzbl 0x4034a0(%rcx),%esi
  401acf:	48 63 ca             	movslq %edx,%rcx
  401ad2:	40 88 b1 20 55 60 00 	mov    %sil,0x605520(%rcx)
  401ad9:	8d 4a 01             	lea    0x1(%rdx),%ecx
  401adc:	83 e7 0f             	and    $0xf,%edi
  401adf:	0f b6 b7 a0 34 40 00 	movzbl 0x4034a0(%rdi),%esi
  401ae6:	48 63 c9             	movslq %ecx,%rcx
  401ae9:	40 88 b1 20 55 60 00 	mov    %sil,0x605520(%rcx)
  401af0:	83 c2 02             	add    $0x2,%edx
  401af3:	48 63 d2             	movslq %edx,%rdx
  401af6:	c6 82 20 55 60 00 20 	movb   $0x20,0x605520(%rdx)
  401afd:	83 c0 01             	add    $0x1,%eax
  401b00:	89 05 1e 46 20 00    	mov    %eax,0x20461e(%rip)        # 606124 <gets_cnt>
  401b06:	f3 c3                	repz retq 

0000000000401b08 <save_term>:
  401b08:	8b 05 16 46 20 00    	mov    0x204616(%rip),%eax        # 606124 <gets_cnt>
  401b0e:	8d 04 40             	lea    (%rax,%rax,2),%eax
  401b11:	48 98                	cltq   
  401b13:	c6 80 20 55 60 00 00 	movb   $0x0,0x605520(%rax)
  401b1a:	c3                   	retq   

0000000000401b1b <check_fail>:
  401b1b:	48 83 ec 08          	sub    $0x8,%rsp
  401b1f:	0f be 35 02 46 20 00 	movsbl 0x204602(%rip),%esi        # 606128 <target_prefix>
  401b26:	b9 20 55 60 00       	mov    $0x605520,%ecx
  401b2b:	8b 15 c7 39 20 00    	mov    0x2039c7(%rip),%edx        # 6054f8 <check_level>
  401b31:	bf 9b 31 40 00       	mov    $0x40319b,%edi
  401b36:	b8 00 00 00 00       	mov    $0x0,%eax
  401b3b:	e8 40 f1 ff ff       	callq  400c80 <printf@plt>
  401b40:	bf 01 00 00 00       	mov    $0x1,%edi
  401b45:	e8 a6 f2 ff ff       	callq  400df0 <exit@plt>

0000000000401b4a <Gets>:
  401b4a:	41 54                	push   %r12
  401b4c:	55                   	push   %rbp
  401b4d:	53                   	push   %rbx
  401b4e:	49 89 fc             	mov    %rdi,%r12
  401b51:	c7 05 c9 45 20 00 00 	movl   $0x0,0x2045c9(%rip)        # 606124 <gets_cnt>
  401b58:	00 00 00 
  401b5b:	48 89 fb             	mov    %rdi,%rbx
  401b5e:	eb 11                	jmp    401b71 <Gets+0x27>
  401b60:	48 8d 6b 01          	lea    0x1(%rbx),%rbp
  401b64:	88 03                	mov    %al,(%rbx)
  401b66:	0f b6 f8             	movzbl %al,%edi
  401b69:	e8 42 ff ff ff       	callq  401ab0 <save_char>
  401b6e:	48 89 eb             	mov    %rbp,%rbx
  401b71:	48 8b 3d 78 39 20 00 	mov    0x203978(%rip),%rdi        # 6054f0 <infile>
  401b78:	e8 e3 f1 ff ff       	callq  400d60 <_IO_getc@plt>
  401b7d:	83 f8 ff             	cmp    $0xffffffffffffffff,%eax
  401b80:	74 05                	je     401b87 <Gets+0x3d>
  401b82:	83 f8 0a             	cmp    $0xa,%eax
  401b85:	75 d9                	jne    401b60 <Gets+0x16>
  401b87:	c6 03 00             	movb   $0x0,(%rbx)
  401b8a:	b8 00 00 00 00       	mov    $0x0,%eax
  401b8f:	e8 74 ff ff ff       	callq  401b08 <save_term>
  401b94:	4c 89 e0             	mov    %r12,%rax
  401b97:	5b                   	pop    %rbx
  401b98:	5d                   	pop    %rbp
  401b99:	41 5c                	pop    %r12
  401b9b:	c3                   	retq   

0000000000401b9c <notify_server>:
  401b9c:	83 3d 65 39 20 00 00 	cmpl   $0x0,0x203965(%rip)        # 605508 <is_checker>
  401ba3:	0f 85 8e 01 00 00    	jne    401d37 <notify_server+0x19b>
  401ba9:	53                   	push   %rbx
  401baa:	48 81 ec 10 40 00 00 	sub    $0x4010,%rsp
  401bb1:	89 fb                	mov    %edi,%ebx
  401bb3:	8b 05 6b 45 20 00    	mov    0x20456b(%rip),%eax        # 606124 <gets_cnt>
  401bb9:	83 c0 64             	add    $0x64,%eax
  401bbc:	3d 00 20 00 00       	cmp    $0x2000,%eax
  401bc1:	7e 19                	jle    401bdc <notify_server+0x40>
  401bc3:	bf d0 32 40 00       	mov    $0x4032d0,%edi
  401bc8:	b8 00 00 00 00       	mov    $0x0,%eax
  401bcd:	e8 ae f0 ff ff       	callq  400c80 <printf@plt>
  401bd2:	bf 01 00 00 00       	mov    $0x1,%edi
  401bd7:	e8 14 f2 ff ff       	callq  400df0 <exit@plt>
  401bdc:	44 0f be 0d 44 45 20 	movsbl 0x204544(%rip),%r9d        # 606128 <target_prefix>
  401be3:	00 
  401be4:	83 3d bd 38 20 00 00 	cmpl   $0x0,0x2038bd(%rip)        # 6054a8 <notify>
  401beb:	74 09                	je     401bf6 <notify_server+0x5a>
  401bed:	44 8b 05 0c 39 20 00 	mov    0x20390c(%rip),%r8d        # 605500 <authkey>
  401bf4:	eb 06                	jmp    401bfc <notify_server+0x60>
  401bf6:	41 b8 ff ff ff ff    	mov    $0xffffffff,%r8d
  401bfc:	85 db                	test   %ebx,%ebx
  401bfe:	74 07                	je     401c07 <notify_server+0x6b>
  401c00:	b9 b1 31 40 00       	mov    $0x4031b1,%ecx
  401c05:	eb 05                	jmp    401c0c <notify_server+0x70>
  401c07:	b9 b6 31 40 00       	mov    $0x4031b6,%ecx
  401c0c:	48 c7 44 24 08 20 55 	movq   $0x605520,0x8(%rsp)
  401c13:	60 00 
  401c15:	89 34 24             	mov    %esi,(%rsp)
  401c18:	8b 15 4a 35 20 00    	mov    0x20354a(%rip),%edx        # 605168 <target_id>
  401c1e:	be bb 31 40 00       	mov    $0x4031bb,%esi
  401c23:	48 8d bc 24 10 20 00 	lea    0x2010(%rsp),%rdi
  401c2a:	00 
  401c2b:	b8 00 00 00 00       	mov    $0x0,%eax
  401c30:	e8 ab f1 ff ff       	callq  400de0 <sprintf@plt>
  401c35:	83 3d 6c 38 20 00 00 	cmpl   $0x0,0x20386c(%rip)        # 6054a8 <notify>
  401c3c:	74 78                	je     401cb6 <notify_server+0x11a>
  401c3e:	85 db                	test   %ebx,%ebx
  401c40:	74 68                	je     401caa <notify_server+0x10e>
  401c42:	4c 8d 4c 24 10       	lea    0x10(%rsp),%r9
  401c47:	41 b8 00 00 00 00    	mov    $0x0,%r8d
  401c4d:	48 8d 8c 24 10 20 00 	lea    0x2010(%rsp),%rcx
  401c54:	00 
  401c55:	48 8b 15 14 35 20 00 	mov    0x203514(%rip),%rdx        # 605170 <lab>
  401c5c:	48 8b 35 15 35 20 00 	mov    0x203515(%rip),%rsi        # 605178 <course>
  401c63:	48 8b 3d f6 34 20 00 	mov    0x2034f6(%rip),%rdi        # 605160 <user_id>
  401c6a:	e8 94 0f 00 00       	callq  402c03 <driver_post>
  401c6f:	85 c0                	test   %eax,%eax
  401c71:	79 1e                	jns    401c91 <notify_server+0xf5>
  401c73:	48 8d 74 24 10       	lea    0x10(%rsp),%rsi
  401c78:	bf d7 31 40 00       	mov    $0x4031d7,%edi
  401c7d:	b8 00 00 00 00       	mov    $0x0,%eax
  401c82:	e8 f9 ef ff ff       	callq  400c80 <printf@plt>
  401c87:	bf 01 00 00 00       	mov    $0x1,%edi
  401c8c:	e8 5f f1 ff ff       	callq  400df0 <exit@plt>
  401c91:	bf 00 33 40 00       	mov    $0x403300,%edi
  401c96:	e8 b5 ef ff ff       	callq  400c50 <puts@plt>
  401c9b:	bf e3 31 40 00       	mov    $0x4031e3,%edi
  401ca0:	e8 ab ef ff ff       	callq  400c50 <puts@plt>
  401ca5:	e9 85 00 00 00       	jmpq   401d2f <notify_server+0x193>
  401caa:	bf ed 31 40 00       	mov    $0x4031ed,%edi
  401caf:	e8 9c ef ff ff       	callq  400c50 <puts@plt>
  401cb4:	eb 79                	jmp    401d2f <notify_server+0x193>
  401cb6:	85 db                	test   %ebx,%ebx
  401cb8:	74 08                	je     401cc2 <notify_server+0x126>
  401cba:	be b1 31 40 00       	mov    $0x4031b1,%esi
  401cbf:	90                   	nop
  401cc0:	eb 05                	jmp    401cc7 <notify_server+0x12b>
  401cc2:	be b6 31 40 00       	mov    $0x4031b6,%esi
  401cc7:	bf 38 33 40 00       	mov    $0x403338,%edi
  401ccc:	b8 00 00 00 00       	mov    $0x0,%eax
  401cd1:	e8 aa ef ff ff       	callq  400c80 <printf@plt>
  401cd6:	48 8b 35 83 34 20 00 	mov    0x203483(%rip),%rsi        # 605160 <user_id>
  401cdd:	bf f4 31 40 00       	mov    $0x4031f4,%edi
  401ce2:	b8 00 00 00 00       	mov    $0x0,%eax
  401ce7:	e8 94 ef ff ff       	callq  400c80 <printf@plt>
  401cec:	48 8b 35 85 34 20 00 	mov    0x203485(%rip),%rsi        # 605178 <course>
  401cf3:	bf 01 32 40 00       	mov    $0x403201,%edi
  401cf8:	b8 00 00 00 00       	mov    $0x0,%eax
  401cfd:	e8 7e ef ff ff       	callq  400c80 <printf@plt>
  401d02:	48 8b 35 67 34 20 00 	mov    0x203467(%rip),%rsi        # 605170 <lab>
  401d09:	bf 0d 32 40 00       	mov    $0x40320d,%edi
  401d0e:	b8 00 00 00 00       	mov    $0x0,%eax
  401d13:	e8 68 ef ff ff       	callq  400c80 <printf@plt>
  401d18:	48 8d b4 24 10 20 00 	lea    0x2010(%rsp),%rsi
  401d1f:	00 
  401d20:	bf 16 32 40 00       	mov    $0x403216,%edi
  401d25:	b8 00 00 00 00       	mov    $0x0,%eax
  401d2a:	e8 51 ef ff ff       	callq  400c80 <printf@plt>
  401d2f:	48 81 c4 10 40 00 00 	add    $0x4010,%rsp
  401d36:	5b                   	pop    %rbx
  401d37:	f3 c3                	repz retq 

0000000000401d39 <validate>:
  401d39:	53                   	push   %rbx
  401d3a:	89 fb                	mov    %edi,%ebx
  401d3c:	83 3d c5 37 20 00 00 	cmpl   $0x0,0x2037c5(%rip)        # 605508 <is_checker>
  401d43:	74 60                	je     401da5 <validate+0x6c>
  401d45:	39 3d b1 37 20 00    	cmp    %edi,0x2037b1(%rip)        # 6054fc <vlevel>
  401d4b:	74 14                	je     401d61 <validate+0x28>
  401d4d:	bf 22 32 40 00       	mov    $0x403222,%edi
  401d52:	e8 f9 ee ff ff       	callq  400c50 <puts@plt>
  401d57:	b8 00 00 00 00       	mov    $0x0,%eax
  401d5c:	e8 ba fd ff ff       	callq  401b1b <check_fail>
  401d61:	8b 35 91 37 20 00    	mov    0x203791(%rip),%esi        # 6054f8 <check_level>
  401d67:	39 fe                	cmp    %edi,%esi
  401d69:	74 1b                	je     401d86 <validate+0x4d>
  401d6b:	89 fa                	mov    %edi,%edx
  401d6d:	bf 60 33 40 00       	mov    $0x403360,%edi
  401d72:	b8 00 00 00 00       	mov    $0x0,%eax
  401d77:	e8 04 ef ff ff       	callq  400c80 <printf@plt>
  401d7c:	b8 00 00 00 00       	mov    $0x0,%eax
  401d81:	e8 95 fd ff ff       	callq  401b1b <check_fail>
  401d86:	0f be 35 9b 43 20 00 	movsbl 0x20439b(%rip),%esi        # 606128 <target_prefix>
  401d8d:	b9 20 55 60 00       	mov    $0x605520,%ecx
  401d92:	89 fa                	mov    %edi,%edx
  401d94:	bf 40 32 40 00       	mov    $0x403240,%edi
  401d99:	b8 00 00 00 00       	mov    $0x0,%eax
  401d9e:	e8 dd ee ff ff       	callq  400c80 <printf@plt>
  401da3:	eb 44                	jmp    401de9 <validate+0xb0>
  401da5:	39 3d 51 37 20 00    	cmp    %edi,0x203751(%rip)        # 6054fc <vlevel>
  401dab:	74 18                	je     401dc5 <validate+0x8c>
  401dad:	bf 22 32 40 00       	mov    $0x403222,%edi
  401db2:	e8 99 ee ff ff       	callq  400c50 <puts@plt>
  401db7:	89 de                	mov    %ebx,%esi
  401db9:	bf 00 00 00 00       	mov    $0x0,%edi
  401dbe:	e8 d9 fd ff ff       	callq  401b9c <notify_server>
  401dc3:	eb 24                	jmp    401de9 <validate+0xb0>
  401dc5:	0f be 15 5c 43 20 00 	movsbl 0x20435c(%rip),%edx        # 606128 <target_prefix>
  401dcc:	89 fe                	mov    %edi,%esi
  401dce:	bf 88 33 40 00       	mov    $0x403388,%edi
  401dd3:	b8 00 00 00 00       	mov    $0x0,%eax
  401dd8:	e8 a3 ee ff ff       	callq  400c80 <printf@plt>
  401ddd:	89 de                	mov    %ebx,%esi
  401ddf:	bf 01 00 00 00       	mov    $0x1,%edi
  401de4:	e8 b3 fd ff ff       	callq  401b9c <notify_server>
  401de9:	5b                   	pop    %rbx
  401dea:	c3                   	retq   

0000000000401deb <fail>:
  401deb:	48 83 ec 08          	sub    $0x8,%rsp
  401def:	83 3d 12 37 20 00 00 	cmpl   $0x0,0x203712(%rip)        # 605508 <is_checker>
  401df6:	74 0a                	je     401e02 <fail+0x17>
  401df8:	b8 00 00 00 00       	mov    $0x0,%eax
  401dfd:	e8 19 fd ff ff       	callq  401b1b <check_fail>
  401e02:	89 fe                	mov    %edi,%esi
  401e04:	bf 00 00 00 00       	mov    $0x0,%edi
  401e09:	e8 8e fd ff ff       	callq  401b9c <notify_server>
  401e0e:	48 83 c4 08          	add    $0x8,%rsp
  401e12:	c3                   	retq   

0000000000401e13 <bushandler>:
  401e13:	48 83 ec 08          	sub    $0x8,%rsp
  401e17:	83 3d ea 36 20 00 00 	cmpl   $0x0,0x2036ea(%rip)        # 605508 <is_checker>
  401e1e:	74 14                	je     401e34 <bushandler+0x21>
  401e20:	bf 55 32 40 00       	mov    $0x403255,%edi
  401e25:	e8 26 ee ff ff       	callq  400c50 <puts@plt>
  401e2a:	b8 00 00 00 00       	mov    $0x0,%eax
  401e2f:	e8 e7 fc ff ff       	callq  401b1b <check_fail>
  401e34:	bf c0 33 40 00       	mov    $0x4033c0,%edi
  401e39:	e8 12 ee ff ff       	callq  400c50 <puts@plt>
  401e3e:	bf 5f 32 40 00       	mov    $0x40325f,%edi
  401e43:	e8 08 ee ff ff       	callq  400c50 <puts@plt>
  401e48:	be 00 00 00 00       	mov    $0x0,%esi
  401e4d:	bf 00 00 00 00       	mov    $0x0,%edi
  401e52:	e8 45 fd ff ff       	callq  401b9c <notify_server>
  401e57:	bf 01 00 00 00       	mov    $0x1,%edi
  401e5c:	e8 8f ef ff ff       	callq  400df0 <exit@plt>

0000000000401e61 <seghandler>:
  401e61:	48 83 ec 08          	sub    $0x8,%rsp
  401e65:	83 3d 9c 36 20 00 00 	cmpl   $0x0,0x20369c(%rip)        # 605508 <is_checker>
  401e6c:	74 14                	je     401e82 <seghandler+0x21>
  401e6e:	bf 75 32 40 00       	mov    $0x403275,%edi
  401e73:	e8 d8 ed ff ff       	callq  400c50 <puts@plt>
  401e78:	b8 00 00 00 00       	mov    $0x0,%eax
  401e7d:	e8 99 fc ff ff       	callq  401b1b <check_fail>
  401e82:	bf e0 33 40 00       	mov    $0x4033e0,%edi
  401e87:	e8 c4 ed ff ff       	callq  400c50 <puts@plt>
  401e8c:	bf 5f 32 40 00       	mov    $0x40325f,%edi
  401e91:	e8 ba ed ff ff       	callq  400c50 <puts@plt>
  401e96:	be 00 00 00 00       	mov    $0x0,%esi
  401e9b:	bf 00 00 00 00       	mov    $0x0,%edi
  401ea0:	e8 f7 fc ff ff       	callq  401b9c <notify_server>
  401ea5:	bf 01 00 00 00       	mov    $0x1,%edi
  401eaa:	e8 41 ef ff ff       	callq  400df0 <exit@plt>

0000000000401eaf <illegalhandler>:
  401eaf:	48 83 ec 08          	sub    $0x8,%rsp
  401eb3:	83 3d 4e 36 20 00 00 	cmpl   $0x0,0x20364e(%rip)        # 605508 <is_checker>
  401eba:	74 14                	je     401ed0 <illegalhandler+0x21>
  401ebc:	bf 88 32 40 00       	mov    $0x403288,%edi
  401ec1:	e8 8a ed ff ff       	callq  400c50 <puts@plt>
  401ec6:	b8 00 00 00 00       	mov    $0x0,%eax
  401ecb:	e8 4b fc ff ff       	callq  401b1b <check_fail>
  401ed0:	bf 08 34 40 00       	mov    $0x403408,%edi
  401ed5:	e8 76 ed ff ff       	callq  400c50 <puts@plt>
  401eda:	bf 5f 32 40 00       	mov    $0x40325f,%edi
  401edf:	e8 6c ed ff ff       	callq  400c50 <puts@plt>
  401ee4:	be 00 00 00 00       	mov    $0x0,%esi
  401ee9:	bf 00 00 00 00       	mov    $0x0,%edi
  401eee:	e8 a9 fc ff ff       	callq  401b9c <notify_server>
  401ef3:	bf 01 00 00 00       	mov    $0x1,%edi
  401ef8:	e8 f3 ee ff ff       	callq  400df0 <exit@plt>

0000000000401efd <sigalrmhandler>:
  401efd:	48 83 ec 08          	sub    $0x8,%rsp
  401f01:	83 3d 00 36 20 00 00 	cmpl   $0x0,0x203600(%rip)        # 605508 <is_checker>
  401f08:	74 14                	je     401f1e <sigalrmhandler+0x21>
  401f0a:	bf 9c 32 40 00       	mov    $0x40329c,%edi
  401f0f:	e8 3c ed ff ff       	callq  400c50 <puts@plt>
  401f14:	b8 00 00 00 00       	mov    $0x0,%eax
  401f19:	e8 fd fb ff ff       	callq  401b1b <check_fail>
  401f1e:	be 05 00 00 00       	mov    $0x5,%esi
  401f23:	bf 38 34 40 00       	mov    $0x403438,%edi
  401f28:	b8 00 00 00 00       	mov    $0x0,%eax
  401f2d:	e8 4e ed ff ff       	callq  400c80 <printf@plt>
  401f32:	be 00 00 00 00       	mov    $0x0,%esi
  401f37:	bf 00 00 00 00       	mov    $0x0,%edi
  401f3c:	e8 5b fc ff ff       	callq  401b9c <notify_server>
  401f41:	bf 01 00 00 00       	mov    $0x1,%edi
  401f46:	e8 a5 ee ff ff       	callq  400df0 <exit@plt>

0000000000401f4b <launch>:
  401f4b:	55                   	push   %rbp
  401f4c:	48 89 e5             	mov    %rsp,%rbp
  401f4f:	48 89 fa             	mov    %rdi,%rdx
  401f52:	48 8d 47 1e          	lea    0x1e(%rdi),%rax
  401f56:	48 83 e0 f0          	and    $0xfffffffffffffff0,%rax
  401f5a:	48 29 c4             	sub    %rax,%rsp
  401f5d:	48 8d 7c 24 0f       	lea    0xf(%rsp),%rdi
  401f62:	48 83 e7 f0          	and    $0xfffffffffffffff0,%rdi
  401f66:	be f4 00 00 00       	mov    $0xf4,%esi
  401f6b:	e8 20 ed ff ff       	callq  400c90 <memset@plt>
  401f70:	48 8b 05 49 35 20 00 	mov    0x203549(%rip),%rax        # 6054c0 <stdin@@GLIBC_2.2.5>
  401f77:	48 39 05 72 35 20 00 	cmp    %rax,0x203572(%rip)        # 6054f0 <infile>
  401f7e:	75 0f                	jne    401f8f <launch+0x44>
  401f80:	bf a4 32 40 00       	mov    $0x4032a4,%edi
  401f85:	b8 00 00 00 00       	mov    $0x0,%eax
  401f8a:	e8 f1 ec ff ff       	callq  400c80 <printf@plt>
  401f8f:	c7 05 63 35 20 00 00 	movl   $0x0,0x203563(%rip)        # 6054fc <vlevel>
  401f96:	00 00 00 
  401f99:	b8 00 00 00 00       	mov    $0x0,%eax
  401f9e:	e8 b5 f9 ff ff       	callq  401958 <test>
  401fa3:	83 3d 5e 35 20 00 00 	cmpl   $0x0,0x20355e(%rip)        # 605508 <is_checker>
  401faa:	74 14                	je     401fc0 <launch+0x75>
  401fac:	bf b1 32 40 00       	mov    $0x4032b1,%edi
  401fb1:	e8 9a ec ff ff       	callq  400c50 <puts@plt>
  401fb6:	b8 00 00 00 00       	mov    $0x0,%eax
  401fbb:	e8 5b fb ff ff       	callq  401b1b <check_fail>
  401fc0:	bf bc 32 40 00       	mov    $0x4032bc,%edi
  401fc5:	e8 86 ec ff ff       	callq  400c50 <puts@plt>
  401fca:	c9                   	leaveq 
  401fcb:	c3                   	retq   

0000000000401fcc <stable_launch>:
  401fcc:	53                   	push   %rbx
  401fcd:	48 89 3d 14 35 20 00 	mov    %rdi,0x203514(%rip)        # 6054e8 <global_offset>
  401fd4:	41 b9 00 00 00 00    	mov    $0x0,%r9d
  401fda:	41 b8 00 00 00 00    	mov    $0x0,%r8d
  401fe0:	b9 32 01 00 00       	mov    $0x132,%ecx
  401fe5:	ba 07 00 00 00       	mov    $0x7,%edx
  401fea:	be 00 00 10 00       	mov    $0x100000,%esi
  401fef:	bf 00 60 58 55       	mov    $0x55586000,%edi
  401ff4:	e8 77 ec ff ff       	callq  400c70 <mmap@plt>
  401ff9:	48 89 c3             	mov    %rax,%rbx
  401ffc:	48 3d 00 60 58 55    	cmp    $0x55586000,%rax
  402002:	74 32                	je     402036 <stable_launch+0x6a>
  402004:	be 00 00 10 00       	mov    $0x100000,%esi
  402009:	48 89 c7             	mov    %rax,%rdi
  40200c:	e8 6f ed ff ff       	callq  400d80 <munmap@plt>
  402011:	ba 00 60 58 55       	mov    $0x55586000,%edx
  402016:	be 70 34 40 00       	mov    $0x403470,%esi
  40201b:	48 8b 3d ae 34 20 00 	mov    0x2034ae(%rip),%rdi        # 6054d0 <stderr@@GLIBC_2.2.5>
  402022:	b8 00 00 00 00       	mov    $0x0,%eax
  402027:	e8 d4 ec ff ff       	callq  400d00 <fprintf@plt>
  40202c:	bf 01 00 00 00       	mov    $0x1,%edi
  402031:	e8 ba ed ff ff       	callq  400df0 <exit@plt>
  402036:	48 8d 90 f8 ff 0f 00 	lea    0xffff8(%rax),%rdx
  40203d:	48 89 15 ec 40 20 00 	mov    %rdx,0x2040ec(%rip)        # 606130 <stack_top>
  402044:	48 89 e0             	mov    %rsp,%rax
  402047:	48 89 d4             	mov    %rdx,%rsp
  40204a:	48 89 c2             	mov    %rax,%rdx
  40204d:	48 89 15 8c 34 20 00 	mov    %rdx,0x20348c(%rip)        # 6054e0 <global_save_stack>
  402054:	48 8b 3d 8d 34 20 00 	mov    0x20348d(%rip),%rdi        # 6054e8 <global_offset>
  40205b:	e8 eb fe ff ff       	callq  401f4b <launch>
  402060:	48 8b 05 79 34 20 00 	mov    0x203479(%rip),%rax        # 6054e0 <global_save_stack>
  402067:	48 89 c4             	mov    %rax,%rsp
  40206a:	be 00 00 10 00       	mov    $0x100000,%esi
  40206f:	48 89 df             	mov    %rbx,%rdi
  402072:	e8 09 ed ff ff       	callq  400d80 <munmap@plt>
  402077:	5b                   	pop    %rbx
  402078:	c3                   	retq   
  402079:	0f 1f 80 00 00 00 00 	nopl   0x0(%rax)

0000000000402080 <rio_readinitb>:
  402080:	89 37                	mov    %esi,(%rdi)
  402082:	c7 47 04 00 00 00 00 	movl   $0x0,0x4(%rdi)
  402089:	48 8d 47 10          	lea    0x10(%rdi),%rax
  40208d:	48 89 47 08          	mov    %rax,0x8(%rdi)
  402091:	c3                   	retq   

0000000000402092 <sigalrm_handler>:
  402092:	48 83 ec 08          	sub    $0x8,%rsp
  402096:	ba 00 00 00 00       	mov    $0x0,%edx
  40209b:	be b0 34 40 00       	mov    $0x4034b0,%esi
  4020a0:	48 8b 3d 29 34 20 00 	mov    0x203429(%rip),%rdi        # 6054d0 <stderr@@GLIBC_2.2.5>
  4020a7:	b8 00 00 00 00       	mov    $0x0,%eax
  4020ac:	e8 4f ec ff ff       	callq  400d00 <fprintf@plt>
  4020b1:	bf 01 00 00 00       	mov    $0x1,%edi
  4020b6:	e8 35 ed ff ff       	callq  400df0 <exit@plt>

00000000004020bb <urlencode>:
  4020bb:	41 54                	push   %r12
  4020bd:	55                   	push   %rbp
  4020be:	53                   	push   %rbx
  4020bf:	48 83 ec 10          	sub    $0x10,%rsp
  4020c3:	48 89 fb             	mov    %rdi,%rbx
  4020c6:	48 89 f5             	mov    %rsi,%rbp
  4020c9:	b8 00 00 00 00       	mov    $0x0,%eax
  4020ce:	48 c7 c1 ff ff ff ff 	mov    $0xffffffffffffffff,%rcx
  4020d5:	f2 ae                	repnz scas %es:(%rdi),%al
  4020d7:	48 f7 d1             	not    %rcx
  4020da:	8d 41 ff             	lea    -0x1(%rcx),%eax
  4020dd:	e9 93 00 00 00       	jmpq   402175 <urlencode+0xba>
  4020e2:	0f b6 13             	movzbl (%rbx),%edx
  4020e5:	80 fa 2a             	cmp    $0x2a,%dl
  4020e8:	0f 94 c1             	sete   %cl
  4020eb:	80 fa 2d             	cmp    $0x2d,%dl
  4020ee:	0f 94 c0             	sete   %al
  4020f1:	08 c1                	or     %al,%cl
  4020f3:	75 1f                	jne    402114 <urlencode+0x59>
  4020f5:	80 fa 2e             	cmp    $0x2e,%dl
  4020f8:	74 1a                	je     402114 <urlencode+0x59>
  4020fa:	80 fa 5f             	cmp    $0x5f,%dl
  4020fd:	74 15                	je     402114 <urlencode+0x59>
  4020ff:	8d 42 d0             	lea    -0x30(%rdx),%eax
  402102:	3c 09                	cmp    $0x9,%al
  402104:	76 0e                	jbe    402114 <urlencode+0x59>
  402106:	8d 42 bf             	lea    -0x41(%rdx),%eax
  402109:	3c 19                	cmp    $0x19,%al
  40210b:	76 07                	jbe    402114 <urlencode+0x59>
  40210d:	8d 42 9f             	lea    -0x61(%rdx),%eax
  402110:	3c 19                	cmp    $0x19,%al
  402112:	77 09                	ja     40211d <urlencode+0x62>
  402114:	88 55 00             	mov    %dl,0x0(%rbp)
  402117:	48 8d 6d 01          	lea    0x1(%rbp),%rbp
  40211b:	eb 51                	jmp    40216e <urlencode+0xb3>
  40211d:	80 fa 20             	cmp    $0x20,%dl
  402120:	75 0a                	jne    40212c <urlencode+0x71>
  402122:	c6 45 00 2b          	movb   $0x2b,0x0(%rbp)
  402126:	48 8d 6d 01          	lea    0x1(%rbp),%rbp
  40212a:	eb 42                	jmp    40216e <urlencode+0xb3>
  40212c:	8d 42 e0             	lea    -0x20(%rdx),%eax
  40212f:	3c 5f                	cmp    $0x5f,%al
  402131:	0f 96 c1             	setbe  %cl
  402134:	80 fa 09             	cmp    $0x9,%dl
  402137:	0f 94 c0             	sete   %al
  40213a:	08 c1                	or     %al,%cl
  40213c:	74 45                	je     402183 <urlencode+0xc8>
  40213e:	0f b6 d2             	movzbl %dl,%edx
  402141:	be 48 35 40 00       	mov    $0x403548,%esi
  402146:	48 89 e7             	mov    %rsp,%rdi
  402149:	b8 00 00 00 00       	mov    $0x0,%eax
  40214e:	e8 8d ec ff ff       	callq  400de0 <sprintf@plt>
  402153:	0f b6 04 24          	movzbl (%rsp),%eax
  402157:	88 45 00             	mov    %al,0x0(%rbp)
  40215a:	0f b6 44 24 01       	movzbl 0x1(%rsp),%eax
  40215f:	88 45 01             	mov    %al,0x1(%rbp)
  402162:	0f b6 44 24 02       	movzbl 0x2(%rsp),%eax
  402167:	88 45 02             	mov    %al,0x2(%rbp)
  40216a:	48 8d 6d 03          	lea    0x3(%rbp),%rbp
  40216e:	48 83 c3 01          	add    $0x1,%rbx
  402172:	44 89 e0             	mov    %r12d,%eax
  402175:	44 8d 60 ff          	lea    -0x1(%rax),%r12d
  402179:	85 c0                	test   %eax,%eax
  40217b:	0f 85 61 ff ff ff    	jne    4020e2 <urlencode+0x27>
  402181:	eb 05                	jmp    402188 <urlencode+0xcd>
  402183:	b8 ff ff ff ff       	mov    $0xffffffff,%eax
  402188:	48 83 c4 10          	add    $0x10,%rsp
  40218c:	5b                   	pop    %rbx
  40218d:	5d                   	pop    %rbp
  40218e:	41 5c                	pop    %r12
  402190:	c3                   	retq   

0000000000402191 <rio_writen>:
  402191:	41 55                	push   %r13
  402193:	41 54                	push   %r12
  402195:	55                   	push   %rbp
  402196:	53                   	push   %rbx
  402197:	48 83 ec 08          	sub    $0x8,%rsp
  40219b:	41 89 fc             	mov    %edi,%r12d
  40219e:	48 89 f5             	mov    %rsi,%rbp
  4021a1:	49 89 d5             	mov    %rdx,%r13
  4021a4:	48 89 d3             	mov    %rdx,%rbx
  4021a7:	eb 28                	jmp    4021d1 <rio_writen+0x40>
  4021a9:	48 89 da             	mov    %rbx,%rdx
  4021ac:	48 89 ee             	mov    %rbp,%rsi
  4021af:	44 89 e7             	mov    %r12d,%edi
  4021b2:	e8 a9 ea ff ff       	callq  400c60 <write@plt>
  4021b7:	48 85 c0             	test   %rax,%rax
  4021ba:	7f 0f                	jg     4021cb <rio_writen+0x3a>
  4021bc:	e8 4f ea ff ff       	callq  400c10 <__errno_location@plt>
  4021c1:	83 38 04             	cmpl   $0x4,(%rax)
  4021c4:	75 15                	jne    4021db <rio_writen+0x4a>
  4021c6:	b8 00 00 00 00       	mov    $0x0,%eax
  4021cb:	48 29 c3             	sub    %rax,%rbx
  4021ce:	48 01 c5             	add    %rax,%rbp
  4021d1:	48 85 db             	test   %rbx,%rbx
  4021d4:	75 d3                	jne    4021a9 <rio_writen+0x18>
  4021d6:	4c 89 e8             	mov    %r13,%rax
  4021d9:	eb 07                	jmp    4021e2 <rio_writen+0x51>
  4021db:	48 c7 c0 ff ff ff ff 	mov    $0xffffffffffffffff,%rax
  4021e2:	48 83 c4 08          	add    $0x8,%rsp
  4021e6:	5b                   	pop    %rbx
  4021e7:	5d                   	pop    %rbp
  4021e8:	41 5c                	pop    %r12
  4021ea:	41 5d                	pop    %r13
  4021ec:	c3                   	retq   

00000000004021ed <rio_read>:
  4021ed:	41 56                	push   %r14
  4021ef:	41 55                	push   %r13
  4021f1:	41 54                	push   %r12
  4021f3:	55                   	push   %rbp
  4021f4:	53                   	push   %rbx
  4021f5:	48 89 fb             	mov    %rdi,%rbx
  4021f8:	49 89 f6             	mov    %rsi,%r14
  4021fb:	49 89 d5             	mov    %rdx,%r13
  4021fe:	4c 8d 67 10          	lea    0x10(%rdi),%r12
  402202:	eb 2a                	jmp    40222e <rio_read+0x41>
  402204:	ba 00 20 00 00       	mov    $0x2000,%edx
  402209:	4c 89 e6             	mov    %r12,%rsi
  40220c:	8b 3b                	mov    (%rbx),%edi
  40220e:	e8 ad ea ff ff       	callq  400cc0 <read@plt>
  402213:	89 43 04             	mov    %eax,0x4(%rbx)
  402216:	85 c0                	test   %eax,%eax
  402218:	79 0c                	jns    402226 <rio_read+0x39>
  40221a:	e8 f1 e9 ff ff       	callq  400c10 <__errno_location@plt>
  40221f:	83 38 04             	cmpl   $0x4,(%rax)
  402222:	74 0a                	je     40222e <rio_read+0x41>
  402224:	eb 37                	jmp    40225d <rio_read+0x70>
  402226:	85 c0                	test   %eax,%eax
  402228:	74 3c                	je     402266 <rio_read+0x79>
  40222a:	4c 89 63 08          	mov    %r12,0x8(%rbx)
  40222e:	8b 6b 04             	mov    0x4(%rbx),%ebp
  402231:	85 ed                	test   %ebp,%ebp
  402233:	7e cf                	jle    402204 <rio_read+0x17>
  402235:	89 e8                	mov    %ebp,%eax
  402237:	4c 39 e8             	cmp    %r13,%rax
  40223a:	72 03                	jb     40223f <rio_read+0x52>
  40223c:	44 89 ed             	mov    %r13d,%ebp
  40223f:	4c 63 e5             	movslq %ebp,%r12
  402242:	48 8b 73 08          	mov    0x8(%rbx),%rsi
  402246:	4c 89 e2             	mov    %r12,%rdx
  402249:	4c 89 f7             	mov    %r14,%rdi
  40224c:	e8 df ea ff ff       	callq  400d30 <memcpy@plt>
  402251:	4c 01 63 08          	add    %r12,0x8(%rbx)
  402255:	29 6b 04             	sub    %ebp,0x4(%rbx)
  402258:	4c 89 e0             	mov    %r12,%rax
  40225b:	eb 0e                	jmp    40226b <rio_read+0x7e>
  40225d:	48 c7 c0 ff ff ff ff 	mov    $0xffffffffffffffff,%rax
  402264:	eb 05                	jmp    40226b <rio_read+0x7e>
  402266:	b8 00 00 00 00       	mov    $0x0,%eax
  40226b:	5b                   	pop    %rbx
  40226c:	5d                   	pop    %rbp
  40226d:	41 5c                	pop    %r12
  40226f:	41 5d                	pop    %r13
  402271:	41 5e                	pop    %r14
  402273:	c3                   	retq   

0000000000402274 <rio_readlineb>:
  402274:	41 55                	push   %r13
  402276:	41 54                	push   %r12
  402278:	55                   	push   %rbp
  402279:	53                   	push   %rbx
  40227a:	48 83 ec 18          	sub    $0x18,%rsp
  40227e:	49 89 fd             	mov    %rdi,%r13
  402281:	48 89 f5             	mov    %rsi,%rbp
  402284:	49 89 d4             	mov    %rdx,%r12
  402287:	bb 01 00 00 00       	mov    $0x1,%ebx
  40228c:	eb 3d                	jmp    4022cb <rio_readlineb+0x57>
  40228e:	ba 01 00 00 00       	mov    $0x1,%edx
  402293:	48 8d 74 24 0f       	lea    0xf(%rsp),%rsi
  402298:	4c 89 ef             	mov    %r13,%rdi
  40229b:	e8 4d ff ff ff       	callq  4021ed <rio_read>
  4022a0:	83 f8 01             	cmp    $0x1,%eax
  4022a3:	75 12                	jne    4022b7 <rio_readlineb+0x43>
  4022a5:	48 8d 55 01          	lea    0x1(%rbp),%rdx
  4022a9:	0f b6 44 24 0f       	movzbl 0xf(%rsp),%eax
  4022ae:	88 45 00             	mov    %al,0x0(%rbp)
  4022b1:	3c 0a                	cmp    $0xa,%al
  4022b3:	75 0f                	jne    4022c4 <rio_readlineb+0x50>
  4022b5:	eb 1b                	jmp    4022d2 <rio_readlineb+0x5e>
  4022b7:	85 c0                	test   %eax,%eax
  4022b9:	75 23                	jne    4022de <rio_readlineb+0x6a>
  4022bb:	48 83 fb 01          	cmp    $0x1,%rbx
  4022bf:	90                   	nop
  4022c0:	75 13                	jne    4022d5 <rio_readlineb+0x61>
  4022c2:	eb 23                	jmp    4022e7 <rio_readlineb+0x73>
  4022c4:	48 83 c3 01          	add    $0x1,%rbx
  4022c8:	48 89 d5             	mov    %rdx,%rbp
  4022cb:	4c 39 e3             	cmp    %r12,%rbx
  4022ce:	72 be                	jb     40228e <rio_readlineb+0x1a>
  4022d0:	eb 03                	jmp    4022d5 <rio_readlineb+0x61>
  4022d2:	48 89 d5             	mov    %rdx,%rbp
  4022d5:	c6 45 00 00          	movb   $0x0,0x0(%rbp)
  4022d9:	48 89 d8             	mov    %rbx,%rax
  4022dc:	eb 0e                	jmp    4022ec <rio_readlineb+0x78>
  4022de:	48 c7 c0 ff ff ff ff 	mov    $0xffffffffffffffff,%rax
  4022e5:	eb 05                	jmp    4022ec <rio_readlineb+0x78>
  4022e7:	b8 00 00 00 00       	mov    $0x0,%eax
  4022ec:	48 83 c4 18          	add    $0x18,%rsp
  4022f0:	5b                   	pop    %rbx
  4022f1:	5d                   	pop    %rbp
  4022f2:	41 5c                	pop    %r12
  4022f4:	41 5d                	pop    %r13
  4022f6:	c3                   	retq   

00000000004022f7 <submitr>:
  4022f7:	41 57                	push   %r15
  4022f9:	41 56                	push   %r14
  4022fb:	41 55                	push   %r13
  4022fd:	41 54                	push   %r12
  4022ff:	55                   	push   %rbp
  402300:	53                   	push   %rbx
  402301:	48 81 ec 48 a0 00 00 	sub    $0xa048,%rsp
  402308:	49 89 fc             	mov    %rdi,%r12
  40230b:	89 74 24 04          	mov    %esi,0x4(%rsp)
  40230f:	49 89 d7             	mov    %rdx,%r15
  402312:	49 89 ce             	mov    %rcx,%r14
  402315:	4c 89 44 24 08       	mov    %r8,0x8(%rsp)
  40231a:	4d 89 cd             	mov    %r9,%r13
  40231d:	48 8b 9c 24 80 a0 00 	mov    0xa080(%rsp),%rbx
  402324:	00 
  402325:	c7 84 24 1c 20 00 00 	movl   $0x0,0x201c(%rsp)
  40232c:	00 00 00 00 
  402330:	ba 00 00 00 00       	mov    $0x0,%edx
  402335:	be 01 00 00 00       	mov    $0x1,%esi
  40233a:	bf 02 00 00 00       	mov    $0x2,%edi
  40233f:	e8 cc ea ff ff       	callq  400e10 <socket@plt>
  402344:	89 c5                	mov    %eax,%ebp
  402346:	85 c0                	test   %eax,%eax
  402348:	79 4e                	jns    402398 <submitr+0xa1>
  40234a:	48 b8 45 72 72 6f 72 	mov    $0x43203a726f727245,%rax
  402351:	3a 20 43 
  402354:	48 89 03             	mov    %rax,(%rbx)
  402357:	48 b8 6c 69 65 6e 74 	mov    $0x6e7520746e65696c,%rax
  40235e:	20 75 6e 
  402361:	48 89 43 08          	mov    %rax,0x8(%rbx)
  402365:	48 b8 61 62 6c 65 20 	mov    $0x206f7420656c6261,%rax
  40236c:	74 6f 20 
  40236f:	48 89 43 10          	mov    %rax,0x10(%rbx)
  402373:	48 b8 63 72 65 61 74 	mov    $0x7320657461657263,%rax
  40237a:	65 20 73 
  40237d:	48 89 43 18          	mov    %rax,0x18(%rbx)
  402381:	c7 43 20 6f 63 6b 65 	movl   $0x656b636f,0x20(%rbx)
  402388:	66 c7 43 24 74 00    	movw   $0x74,0x24(%rbx)
  40238e:	b8 ff ff ff ff       	mov    $0xffffffff,%eax
  402393:	e9 68 06 00 00       	jmpq   402a00 <submitr+0x709>
  402398:	4c 89 e7             	mov    %r12,%rdi
  40239b:	e8 50 e9 ff ff       	callq  400cf0 <gethostbyname@plt>
  4023a0:	48 85 c0             	test   %rax,%rax
  4023a3:	75 67                	jne    40240c <submitr+0x115>
  4023a5:	48 b8 45 72 72 6f 72 	mov    $0x44203a726f727245,%rax
  4023ac:	3a 20 44 
  4023af:	48 89 03             	mov    %rax,(%rbx)
  4023b2:	48 b8 4e 53 20 69 73 	mov    $0x6e7520736920534e,%rax
  4023b9:	20 75 6e 
  4023bc:	48 89 43 08          	mov    %rax,0x8(%rbx)
  4023c0:	48 b8 61 62 6c 65 20 	mov    $0x206f7420656c6261,%rax
  4023c7:	74 6f 20 
  4023ca:	48 89 43 10          	mov    %rax,0x10(%rbx)
  4023ce:	48 b8 72 65 73 6f 6c 	mov    $0x2065766c6f736572,%rax
  4023d5:	76 65 20 
  4023d8:	48 89 43 18          	mov    %rax,0x18(%rbx)
  4023dc:	48 b8 73 65 72 76 65 	mov    $0x6120726576726573,%rax
  4023e3:	72 20 61 
  4023e6:	48 89 43 20          	mov    %rax,0x20(%rbx)
  4023ea:	c7 43 28 64 64 72 65 	movl   $0x65726464,0x28(%rbx)
  4023f1:	66 c7 43 2c 73 73    	movw   $0x7373,0x2c(%rbx)
  4023f7:	c6 43 2e 00          	movb   $0x0,0x2e(%rbx)
  4023fb:	89 ef                	mov    %ebp,%edi
  4023fd:	e8 ae e8 ff ff       	callq  400cb0 <close@plt>
  402402:	b8 ff ff ff ff       	mov    $0xffffffff,%eax
  402407:	e9 f4 05 00 00       	jmpq   402a00 <submitr+0x709>
  40240c:	48 c7 84 24 30 a0 00 	movq   $0x0,0xa030(%rsp)
  402413:	00 00 00 00 00 
  402418:	48 c7 84 24 38 a0 00 	movq   $0x0,0xa038(%rsp)
  40241f:	00 00 00 00 00 
  402424:	66 c7 84 24 30 a0 00 	movw   $0x2,0xa030(%rsp)
  40242b:	00 02 00 
  40242e:	48 8b 48 18          	mov    0x18(%rax),%rcx
  402432:	48 63 50 14          	movslq 0x14(%rax),%rdx
  402436:	48 8d b4 24 34 a0 00 	lea    0xa034(%rsp),%rsi
  40243d:	00 
  40243e:	48 8b 39             	mov    (%rcx),%rdi
  402441:	e8 4a e9 ff ff       	callq  400d90 <bcopy@plt>
  402446:	0f b7 44 24 04       	movzwl 0x4(%rsp),%eax
  40244b:	66 c1 c8 08          	ror    $0x8,%ax
  40244f:	66 89 84 24 32 a0 00 	mov    %ax,0xa032(%rsp)
  402456:	00 
  402457:	ba 10 00 00 00       	mov    $0x10,%edx
  40245c:	48 8d b4 24 30 a0 00 	lea    0xa030(%rsp),%rsi
  402463:	00 
  402464:	89 ef                	mov    %ebp,%edi
  402466:	e8 95 e9 ff ff       	callq  400e00 <connect@plt>
  40246b:	85 c0                	test   %eax,%eax
  40246d:	79 59                	jns    4024c8 <submitr+0x1d1>
  40246f:	48 b8 45 72 72 6f 72 	mov    $0x55203a726f727245,%rax
  402476:	3a 20 55 
  402479:	48 89 03             	mov    %rax,(%rbx)
  40247c:	48 b8 6e 61 62 6c 65 	mov    $0x6f7420656c62616e,%rax
  402483:	20 74 6f 
  402486:	48 89 43 08          	mov    %rax,0x8(%rbx)
  40248a:	48 b8 20 63 6f 6e 6e 	mov    $0x7463656e6e6f6320,%rax
  402491:	65 63 74 
  402494:	48 89 43 10          	mov    %rax,0x10(%rbx)
  402498:	48 b8 20 74 6f 20 74 	mov    $0x20656874206f7420,%rax
  40249f:	68 65 20 
  4024a2:	48 89 43 18          	mov    %rax,0x18(%rbx)
  4024a6:	c7 43 20 73 65 72 76 	movl   $0x76726573,0x20(%rbx)
  4024ad:	66 c7 43 24 65 72    	movw   $0x7265,0x24(%rbx)
  4024b3:	c6 43 26 00          	movb   $0x0,0x26(%rbx)
  4024b7:	89 ef                	mov    %ebp,%edi
  4024b9:	e8 f2 e7 ff ff       	callq  400cb0 <close@plt>
  4024be:	b8 ff ff ff ff       	mov    $0xffffffff,%eax
  4024c3:	e9 38 05 00 00       	jmpq   402a00 <submitr+0x709>
  4024c8:	48 c7 c2 ff ff ff ff 	mov    $0xffffffffffffffff,%rdx
  4024cf:	4c 89 ef             	mov    %r13,%rdi
  4024d2:	b8 00 00 00 00       	mov    $0x0,%eax
  4024d7:	48 89 d1             	mov    %rdx,%rcx
  4024da:	f2 ae                	repnz scas %es:(%rdi),%al
  4024dc:	48 f7 d1             	not    %rcx
  4024df:	48 89 ce             	mov    %rcx,%rsi
  4024e2:	4c 89 ff             	mov    %r15,%rdi
  4024e5:	48 89 d1             	mov    %rdx,%rcx
  4024e8:	f2 ae                	repnz scas %es:(%rdi),%al
  4024ea:	48 f7 d1             	not    %rcx
  4024ed:	49 89 c8             	mov    %rcx,%r8
  4024f0:	4c 89 f7             	mov    %r14,%rdi
  4024f3:	48 89 d1             	mov    %rdx,%rcx
  4024f6:	f2 ae                	repnz scas %es:(%rdi),%al
  4024f8:	49 29 c8             	sub    %rcx,%r8
  4024fb:	48 8b 7c 24 08       	mov    0x8(%rsp),%rdi
  402500:	48 89 d1             	mov    %rdx,%rcx
  402503:	f2 ae                	repnz scas %es:(%rdi),%al
  402505:	49 29 c8             	sub    %rcx,%r8
  402508:	48 8d 44 76 fd       	lea    -0x3(%rsi,%rsi,2),%rax
  40250d:	49 8d 44 00 7b       	lea    0x7b(%r8,%rax,1),%rax
  402512:	48 3d 00 20 00 00    	cmp    $0x2000,%rax
  402518:	76 72                	jbe    40258c <submitr+0x295>
  40251a:	48 b8 45 72 72 6f 72 	mov    $0x52203a726f727245,%rax
  402521:	3a 20 52 
  402524:	48 89 03             	mov    %rax,(%rbx)
  402527:	48 b8 65 73 75 6c 74 	mov    $0x747320746c757365,%rax
  40252e:	20 73 74 
  402531:	48 89 43 08          	mov    %rax,0x8(%rbx)
  402535:	48 b8 72 69 6e 67 20 	mov    $0x6f6f7420676e6972,%rax
  40253c:	74 6f 6f 
  40253f:	48 89 43 10          	mov    %rax,0x10(%rbx)
  402543:	48 b8 20 6c 61 72 67 	mov    $0x202e656772616c20,%rax
  40254a:	65 2e 20 
  40254d:	48 89 43 18          	mov    %rax,0x18(%rbx)
  402551:	48 b8 49 6e 63 72 65 	mov    $0x6573616572636e49,%rax
  402558:	61 73 65 
  40255b:	48 89 43 20          	mov    %rax,0x20(%rbx)
  40255f:	48 b8 20 53 55 42 4d 	mov    $0x5254494d42555320,%rax
  402566:	49 54 52 
  402569:	48 89 43 28          	mov    %rax,0x28(%rbx)
  40256d:	48 b8 5f 4d 41 58 42 	mov    $0x46554258414d5f,%rax
  402574:	55 46 00 
  402577:	48 89 43 30          	mov    %rax,0x30(%rbx)
  40257b:	89 ef                	mov    %ebp,%edi
  40257d:	e8 2e e7 ff ff       	callq  400cb0 <close@plt>
  402582:	b8 ff ff ff ff       	mov    $0xffffffff,%eax
  402587:	e9 74 04 00 00       	jmpq   402a00 <submitr+0x709>
  40258c:	48 8d b4 24 20 40 00 	lea    0x4020(%rsp),%rsi
  402593:	00 
  402594:	b9 00 04 00 00       	mov    $0x400,%ecx
  402599:	b8 00 00 00 00       	mov    $0x0,%eax
  40259e:	48 89 f7             	mov    %rsi,%rdi
  4025a1:	f3 48 ab             	rep stos %rax,%es:(%rdi)
  4025a4:	4c 89 ef             	mov    %r13,%rdi
  4025a7:	e8 0f fb ff ff       	callq  4020bb <urlencode>
  4025ac:	85 c0                	test   %eax,%eax
  4025ae:	0f 89 8a 00 00 00    	jns    40263e <submitr+0x347>
  4025b4:	48 b8 45 72 72 6f 72 	mov    $0x52203a726f727245,%rax
  4025bb:	3a 20 52 
  4025be:	48 89 03             	mov    %rax,(%rbx)
  4025c1:	48 b8 65 73 75 6c 74 	mov    $0x747320746c757365,%rax
  4025c8:	20 73 74 
  4025cb:	48 89 43 08          	mov    %rax,0x8(%rbx)
  4025cf:	48 b8 72 69 6e 67 20 	mov    $0x6e6f6320676e6972,%rax
  4025d6:	63 6f 6e 
  4025d9:	48 89 43 10          	mov    %rax,0x10(%rbx)
  4025dd:	48 b8 74 61 69 6e 73 	mov    $0x6e6120736e696174,%rax
  4025e4:	20 61 6e 
  4025e7:	48 89 43 18          	mov    %rax,0x18(%rbx)
  4025eb:	48 b8 20 69 6c 6c 65 	mov    $0x6c6167656c6c6920,%rax
  4025f2:	67 61 6c 
  4025f5:	48 89 43 20          	mov    %rax,0x20(%rbx)
  4025f9:	48 b8 20 6f 72 20 75 	mov    $0x72706e7520726f20,%rax
  402600:	6e 70 72 
  402603:	48 89 43 28          	mov    %rax,0x28(%rbx)
  402607:	48 b8 69 6e 74 61 62 	mov    $0x20656c6261746e69,%rax
  40260e:	6c 65 20 
  402611:	48 89 43 30          	mov    %rax,0x30(%rbx)
  402615:	48 b8 63 68 61 72 61 	mov    $0x6574636172616863,%rax
  40261c:	63 74 65 
  40261f:	48 89 43 38          	mov    %rax,0x38(%rbx)
  402623:	66 c7 43 40 72 2e    	movw   $0x2e72,0x40(%rbx)
  402629:	c6 43 42 00          	movb   $0x0,0x42(%rbx)
  40262d:	89 ef                	mov    %ebp,%edi
  40262f:	e8 7c e6 ff ff       	callq  400cb0 <close@plt>
  402634:	b8 ff ff ff ff       	mov    $0xffffffff,%eax
  402639:	e9 c2 03 00 00       	jmpq   402a00 <submitr+0x709>
  40263e:	4d 89 e1             	mov    %r12,%r9
  402641:	4c 8d 84 24 20 40 00 	lea    0x4020(%rsp),%r8
  402648:	00 
  402649:	4c 89 f9             	mov    %r15,%rcx
  40264c:	4c 89 f2             	mov    %r14,%rdx
  40264f:	be d8 34 40 00       	mov    $0x4034d8,%esi
  402654:	48 8d bc 24 20 60 00 	lea    0x6020(%rsp),%rdi
  40265b:	00 
  40265c:	b8 00 00 00 00       	mov    $0x0,%eax
  402661:	e8 7a e7 ff ff       	callq  400de0 <sprintf@plt>
  402666:	48 8d bc 24 20 60 00 	lea    0x6020(%rsp),%rdi
  40266d:	00 
  40266e:	b8 00 00 00 00       	mov    $0x0,%eax
  402673:	48 c7 c1 ff ff ff ff 	mov    $0xffffffffffffffff,%rcx
  40267a:	f2 ae                	repnz scas %es:(%rdi),%al
  40267c:	48 f7 d1             	not    %rcx
  40267f:	48 8d 51 ff          	lea    -0x1(%rcx),%rdx
  402683:	48 8d b4 24 20 60 00 	lea    0x6020(%rsp),%rsi
  40268a:	00 
  40268b:	89 ef                	mov    %ebp,%edi
  40268d:	e8 ff fa ff ff       	callq  402191 <rio_writen>
  402692:	48 85 c0             	test   %rax,%rax
  402695:	79 6e                	jns    402705 <submitr+0x40e>
  402697:	48 b8 45 72 72 6f 72 	mov    $0x43203a726f727245,%rax
  40269e:	3a 20 43 
  4026a1:	48 89 03             	mov    %rax,(%rbx)
  4026a4:	48 b8 6c 69 65 6e 74 	mov    $0x6e7520746e65696c,%rax
  4026ab:	20 75 6e 
  4026ae:	48 89 43 08          	mov    %rax,0x8(%rbx)
  4026b2:	48 b8 61 62 6c 65 20 	mov    $0x206f7420656c6261,%rax
  4026b9:	74 6f 20 
  4026bc:	48 89 43 10          	mov    %rax,0x10(%rbx)
  4026c0:	48 b8 77 72 69 74 65 	mov    $0x6f74206574697277,%rax
  4026c7:	20 74 6f 
  4026ca:	48 89 43 18          	mov    %rax,0x18(%rbx)
  4026ce:	48 b8 20 74 68 65 20 	mov    $0x7365722065687420,%rax
  4026d5:	72 65 73 
  4026d8:	48 89 43 20          	mov    %rax,0x20(%rbx)
  4026dc:	48 b8 75 6c 74 20 73 	mov    $0x7672657320746c75,%rax
  4026e3:	65 72 76 
  4026e6:	48 89 43 28          	mov    %rax,0x28(%rbx)
  4026ea:	66 c7 43 30 65 72    	movw   $0x7265,0x30(%rbx)
  4026f0:	c6 43 32 00          	movb   $0x0,0x32(%rbx)
  4026f4:	89 ef                	mov    %ebp,%edi
  4026f6:	e8 b5 e5 ff ff       	callq  400cb0 <close@plt>
  4026fb:	b8 ff ff ff ff       	mov    $0xffffffff,%eax
  402700:	e9 fb 02 00 00       	jmpq   402a00 <submitr+0x709>
  402705:	89 ee                	mov    %ebp,%esi
  402707:	48 8d bc 24 20 80 00 	lea    0x8020(%rsp),%rdi
  40270e:	00 
  40270f:	e8 6c f9 ff ff       	callq  402080 <rio_readinitb>
  402714:	ba 00 20 00 00       	mov    $0x2000,%edx
  402719:	48 8d b4 24 20 60 00 	lea    0x6020(%rsp),%rsi
  402720:	00 
  402721:	48 8d bc 24 20 80 00 	lea    0x8020(%rsp),%rdi
  402728:	00 
  402729:	e8 46 fb ff ff       	callq  402274 <rio_readlineb>
  40272e:	48 85 c0             	test   %rax,%rax
  402731:	7f 7d                	jg     4027b0 <submitr+0x4b9>
  402733:	48 b8 45 72 72 6f 72 	mov    $0x43203a726f727245,%rax
  40273a:	3a 20 43 
  40273d:	48 89 03             	mov    %rax,(%rbx)
  402740:	48 b8 6c 69 65 6e 74 	mov    $0x6e7520746e65696c,%rax
  402747:	20 75 6e 
  40274a:	48 89 43 08          	mov    %rax,0x8(%rbx)
  40274e:	48 b8 61 62 6c 65 20 	mov    $0x206f7420656c6261,%rax
  402755:	74 6f 20 
  402758:	48 89 43 10          	mov    %rax,0x10(%rbx)
  40275c:	48 b8 72 65 61 64 20 	mov    $0x7269662064616572,%rax
  402763:	66 69 72 
  402766:	48 89 43 18          	mov    %rax,0x18(%rbx)
  40276a:	48 b8 73 74 20 68 65 	mov    $0x6564616568207473,%rax
  402771:	61 64 65 
  402774:	48 89 43 20          	mov    %rax,0x20(%rbx)
  402778:	48 b8 72 20 66 72 6f 	mov    $0x72206d6f72662072,%rax
  40277f:	6d 20 72 
  402782:	48 89 43 28          	mov    %rax,0x28(%rbx)
  402786:	48 b8 65 73 75 6c 74 	mov    $0x657320746c757365,%rax
  40278d:	20 73 65 
  402790:	48 89 43 30          	mov    %rax,0x30(%rbx)
  402794:	c7 43 38 72 76 65 72 	movl   $0x72657672,0x38(%rbx)
  40279b:	c6 43 3c 00          	movb   $0x0,0x3c(%rbx)
  40279f:	89 ef                	mov    %ebp,%edi
  4027a1:	e8 0a e5 ff ff       	callq  400cb0 <close@plt>
  4027a6:	b8 ff ff ff ff       	mov    $0xffffffff,%eax
  4027ab:	e9 50 02 00 00       	jmpq   402a00 <submitr+0x709>
  4027b0:	4c 8d 44 24 10       	lea    0x10(%rsp),%r8
  4027b5:	48 8d 8c 24 1c 20 00 	lea    0x201c(%rsp),%rcx
  4027bc:	00 
  4027bd:	48 8d 94 24 20 20 00 	lea    0x2020(%rsp),%rdx
  4027c4:	00 
  4027c5:	be 4f 35 40 00       	mov    $0x40354f,%esi
  4027ca:	48 8d bc 24 20 60 00 	lea    0x6020(%rsp),%rdi
  4027d1:	00 
  4027d2:	b8 00 00 00 00       	mov    $0x0,%eax
  4027d7:	e8 94 e5 ff ff       	callq  400d70 <__isoc99_sscanf@plt>
  4027dc:	e9 98 00 00 00       	jmpq   402879 <submitr+0x582>
  4027e1:	ba 00 20 00 00       	mov    $0x2000,%edx
  4027e6:	48 8d b4 24 20 60 00 	lea    0x6020(%rsp),%rsi
  4027ed:	00 
  4027ee:	48 8d bc 24 20 80 00 	lea    0x8020(%rsp),%rdi
  4027f5:	00 
  4027f6:	e8 79 fa ff ff       	callq  402274 <rio_readlineb>
  4027fb:	48 85 c0             	test   %rax,%rax
  4027fe:	7f 79                	jg     402879 <submitr+0x582>
  402800:	48 b8 45 72 72 6f 72 	mov    $0x43203a726f727245,%rax
  402807:	3a 20 43 
  40280a:	48 89 03             	mov    %rax,(%rbx)
  40280d:	48 b8 6c 69 65 6e 74 	mov    $0x6e7520746e65696c,%rax
  402814:	20 75 6e 
  402817:	48 89 43 08          	mov    %rax,0x8(%rbx)
  40281b:	48 b8 61 62 6c 65 20 	mov    $0x206f7420656c6261,%rax
  402822:	74 6f 20 
  402825:	48 89 43 10          	mov    %rax,0x10(%rbx)
  402829:	48 b8 72 65 61 64 20 	mov    $0x6165682064616572,%rax
  402830:	68 65 61 
  402833:	48 89 43 18          	mov    %rax,0x18(%rbx)
  402837:	48 b8 64 65 72 73 20 	mov    $0x6f72662073726564,%rax
  40283e:	66 72 6f 
  402841:	48 89 43 20          	mov    %rax,0x20(%rbx)
  402845:	48 b8 6d 20 74 68 65 	mov    $0x657220656874206d,%rax
  40284c:	20 72 65 
  40284f:	48 89 43 28          	mov    %rax,0x28(%rbx)
  402853:	48 b8 73 75 6c 74 20 	mov    $0x72657320746c7573,%rax
  40285a:	73 65 72 
  40285d:	48 89 43 30          	mov    %rax,0x30(%rbx)
  402861:	c7 43 38 76 65 72 00 	movl   $0x726576,0x38(%rbx)
  402868:	89 ef                	mov    %ebp,%edi
  40286a:	e8 41 e4 ff ff       	callq  400cb0 <close@plt>
  40286f:	b8 ff ff ff ff       	mov    $0xffffffff,%eax
  402874:	e9 87 01 00 00       	jmpq   402a00 <submitr+0x709>
  402879:	0f b6 84 24 20 60 00 	movzbl 0x6020(%rsp),%eax
  402880:	00 
  402881:	83 e8 0d             	sub    $0xd,%eax
  402884:	75 15                	jne    40289b <submitr+0x5a4>
  402886:	0f b6 84 24 21 60 00 	movzbl 0x6021(%rsp),%eax
  40288d:	00 
  40288e:	83 e8 0a             	sub    $0xa,%eax
  402891:	75 08                	jne    40289b <submitr+0x5a4>
  402893:	0f b6 84 24 22 60 00 	movzbl 0x6022(%rsp),%eax
  40289a:	00 
  40289b:	85 c0                	test   %eax,%eax
  40289d:	0f 85 3e ff ff ff    	jne    4027e1 <submitr+0x4ea>
  4028a3:	ba 00 20 00 00       	mov    $0x2000,%edx
  4028a8:	48 8d b4 24 20 60 00 	lea    0x6020(%rsp),%rsi
  4028af:	00 
  4028b0:	48 8d bc 24 20 80 00 	lea    0x8020(%rsp),%rdi
  4028b7:	00 
  4028b8:	e8 b7 f9 ff ff       	callq  402274 <rio_readlineb>
  4028bd:	48 85 c0             	test   %rax,%rax
  4028c0:	0f 8f 83 00 00 00    	jg     402949 <submitr+0x652>
  4028c6:	48 b8 45 72 72 6f 72 	mov    $0x43203a726f727245,%rax
  4028cd:	3a 20 43 
  4028d0:	48 89 03             	mov    %rax,(%rbx)
  4028d3:	48 b8 6c 69 65 6e 74 	mov    $0x6e7520746e65696c,%rax
  4028da:	20 75 6e 
  4028dd:	48 89 43 08          	mov    %rax,0x8(%rbx)
  4028e1:	48 b8 61 62 6c 65 20 	mov    $0x206f7420656c6261,%rax
  4028e8:	74 6f 20 
  4028eb:	48 89 43 10          	mov    %rax,0x10(%rbx)
  4028ef:	48 b8 72 65 61 64 20 	mov    $0x6174732064616572,%rax
  4028f6:	73 74 61 
  4028f9:	48 89 43 18          	mov    %rax,0x18(%rbx)
  4028fd:	48 b8 74 75 73 20 6d 	mov    $0x7373656d20737574,%rax
  402904:	65 73 73 
  402907:	48 89 43 20          	mov    %rax,0x20(%rbx)
  40290b:	48 b8 61 67 65 20 66 	mov    $0x6d6f726620656761,%rax
  402912:	72 6f 6d 
  402915:	48 89 43 28          	mov    %rax,0x28(%rbx)
  402919:	48 b8 20 72 65 73 75 	mov    $0x20746c7573657220,%rax
  402920:	6c 74 20 
  402923:	48 89 43 30          	mov    %rax,0x30(%rbx)
  402927:	c7 43 38 73 65 72 76 	movl   $0x76726573,0x38(%rbx)
  40292e:	66 c7 43 3c 65 72    	movw   $0x7265,0x3c(%rbx)
  402934:	c6 43 3e 00          	movb   $0x0,0x3e(%rbx)
  402938:	89 ef                	mov    %ebp,%edi
  40293a:	e8 71 e3 ff ff       	callq  400cb0 <close@plt>
  40293f:	b8 ff ff ff ff       	mov    $0xffffffff,%eax
  402944:	e9 b7 00 00 00       	jmpq   402a00 <submitr+0x709>
  402949:	8b 94 24 1c 20 00 00 	mov    0x201c(%rsp),%edx
  402950:	81 fa c8 00 00 00    	cmp    $0xc8,%edx
  402956:	74 28                	je     402980 <submitr+0x689>
  402958:	48 8d 4c 24 10       	lea    0x10(%rsp),%rcx
  40295d:	be 18 35 40 00       	mov    $0x403518,%esi
  402962:	48 89 df             	mov    %rbx,%rdi
  402965:	b8 00 00 00 00       	mov    $0x0,%eax
  40296a:	e8 71 e4 ff ff       	callq  400de0 <sprintf@plt>
  40296f:	89 ef                	mov    %ebp,%edi
  402971:	e8 3a e3 ff ff       	callq  400cb0 <close@plt>
  402976:	b8 ff ff ff ff       	mov    $0xffffffff,%eax
  40297b:	e9 80 00 00 00       	jmpq   402a00 <submitr+0x709>
  402980:	48 8d b4 24 20 60 00 	lea    0x6020(%rsp),%rsi
  402987:	00 
  402988:	48 89 df             	mov    %rbx,%rdi
  40298b:	e8 b0 e2 ff ff       	callq  400c40 <strcpy@plt>
  402990:	89 ef                	mov    %ebp,%edi
  402992:	e8 19 e3 ff ff       	callq  400cb0 <close@plt>
  402997:	0f b6 03             	movzbl (%rbx),%eax
  40299a:	83 e8 4f             	sub    $0x4f,%eax
  40299d:	75 18                	jne    4029b7 <submitr+0x6c0>
  40299f:	0f b6 53 01          	movzbl 0x1(%rbx),%edx
  4029a3:	83 ea 4b             	sub    $0x4b,%edx
  4029a6:	75 11                	jne    4029b9 <submitr+0x6c2>
  4029a8:	0f b6 53 02          	movzbl 0x2(%rbx),%edx
  4029ac:	83 ea 0a             	sub    $0xa,%edx
  4029af:	75 08                	jne    4029b9 <submitr+0x6c2>
  4029b1:	0f b6 53 03          	movzbl 0x3(%rbx),%edx
  4029b5:	eb 02                	jmp    4029b9 <submitr+0x6c2>
  4029b7:	89 c2                	mov    %eax,%edx
  4029b9:	85 d2                	test   %edx,%edx
  4029bb:	74 30                	je     4029ed <submitr+0x6f6>
  4029bd:	bf 60 35 40 00       	mov    $0x403560,%edi
  4029c2:	b9 05 00 00 00       	mov    $0x5,%ecx
  4029c7:	48 89 de             	mov    %rbx,%rsi
  4029ca:	f3 a6                	repz cmpsb %es:(%rdi),%ds:(%rsi)
  4029cc:	0f 97 c1             	seta   %cl
  4029cf:	0f 92 c2             	setb   %dl
  4029d2:	38 d1                	cmp    %dl,%cl
  4029d4:	74 1e                	je     4029f4 <submitr+0x6fd>
  4029d6:	85 c0                	test   %eax,%eax
  4029d8:	75 0d                	jne    4029e7 <submitr+0x6f0>
  4029da:	0f b6 43 01          	movzbl 0x1(%rbx),%eax
  4029de:	83 e8 4b             	sub    $0x4b,%eax
  4029e1:	75 04                	jne    4029e7 <submitr+0x6f0>
  4029e3:	0f b6 43 02          	movzbl 0x2(%rbx),%eax
  4029e7:	85 c0                	test   %eax,%eax
  4029e9:	75 10                	jne    4029fb <submitr+0x704>
  4029eb:	eb 13                	jmp    402a00 <submitr+0x709>
  4029ed:	b8 00 00 00 00       	mov    $0x0,%eax
  4029f2:	eb 0c                	jmp    402a00 <submitr+0x709>
  4029f4:	b8 00 00 00 00       	mov    $0x0,%eax
  4029f9:	eb 05                	jmp    402a00 <submitr+0x709>
  4029fb:	b8 ff ff ff ff       	mov    $0xffffffff,%eax
  402a00:	48 81 c4 48 a0 00 00 	add    $0xa048,%rsp
  402a07:	5b                   	pop    %rbx
  402a08:	5d                   	pop    %rbp
  402a09:	41 5c                	pop    %r12
  402a0b:	41 5d                	pop    %r13
  402a0d:	41 5e                	pop    %r14
  402a0f:	41 5f                	pop    %r15
  402a11:	c3                   	retq   

0000000000402a12 <init_timeout>:
  402a12:	53                   	push   %rbx
  402a13:	89 fb                	mov    %edi,%ebx
  402a15:	85 ff                	test   %edi,%edi
  402a17:	74 1f                	je     402a38 <init_timeout+0x26>
  402a19:	85 ff                	test   %edi,%edi
  402a1b:	79 05                	jns    402a22 <init_timeout+0x10>
  402a1d:	bb 00 00 00 00       	mov    $0x0,%ebx
  402a22:	be 92 20 40 00       	mov    $0x402092,%esi
  402a27:	bf 0e 00 00 00       	mov    $0xe,%edi
  402a2c:	e8 af e2 ff ff       	callq  400ce0 <signal@plt>
  402a31:	89 df                	mov    %ebx,%edi
  402a33:	e8 68 e2 ff ff       	callq  400ca0 <alarm@plt>
  402a38:	5b                   	pop    %rbx
  402a39:	c3                   	retq   

0000000000402a3a <init_driver>:
  402a3a:	55                   	push   %rbp
  402a3b:	53                   	push   %rbx
  402a3c:	48 83 ec 18          	sub    $0x18,%rsp
  402a40:	48 89 fd             	mov    %rdi,%rbp
  402a43:	be 01 00 00 00       	mov    $0x1,%esi
  402a48:	bf 0d 00 00 00       	mov    $0xd,%edi
  402a4d:	e8 8e e2 ff ff       	callq  400ce0 <signal@plt>
  402a52:	be 01 00 00 00       	mov    $0x1,%esi
  402a57:	bf 1d 00 00 00       	mov    $0x1d,%edi
  402a5c:	e8 7f e2 ff ff       	callq  400ce0 <signal@plt>
  402a61:	be 01 00 00 00       	mov    $0x1,%esi
  402a66:	bf 1d 00 00 00       	mov    $0x1d,%edi
  402a6b:	e8 70 e2 ff ff       	callq  400ce0 <signal@plt>
  402a70:	ba 00 00 00 00       	mov    $0x0,%edx
  402a75:	be 01 00 00 00       	mov    $0x1,%esi
  402a7a:	bf 02 00 00 00       	mov    $0x2,%edi
  402a7f:	e8 8c e3 ff ff       	callq  400e10 <socket@plt>
  402a84:	89 c3                	mov    %eax,%ebx
  402a86:	85 c0                	test   %eax,%eax
  402a88:	79 4f                	jns    402ad9 <init_driver+0x9f>
  402a8a:	48 b8 45 72 72 6f 72 	mov    $0x43203a726f727245,%rax
  402a91:	3a 20 43 
  402a94:	48 89 45 00          	mov    %rax,0x0(%rbp)
  402a98:	48 b8 6c 69 65 6e 74 	mov    $0x6e7520746e65696c,%rax
  402a9f:	20 75 6e 
  402aa2:	48 89 45 08          	mov    %rax,0x8(%rbp)
  402aa6:	48 b8 61 62 6c 65 20 	mov    $0x206f7420656c6261,%rax
  402aad:	74 6f 20 
  402ab0:	48 89 45 10          	mov    %rax,0x10(%rbp)
  402ab4:	48 b8 63 72 65 61 74 	mov    $0x7320657461657263,%rax
  402abb:	65 20 73 
  402abe:	48 89 45 18          	mov    %rax,0x18(%rbp)
  402ac2:	c7 45 20 6f 63 6b 65 	movl   $0x656b636f,0x20(%rbp)
  402ac9:	66 c7 45 24 74 00    	movw   $0x74,0x24(%rbp)
  402acf:	b8 ff ff ff ff       	mov    $0xffffffff,%eax
  402ad4:	e9 23 01 00 00       	jmpq   402bfc <init_driver+0x1c2>
  402ad9:	bf 84 30 40 00       	mov    $0x403084,%edi
  402ade:	e8 0d e2 ff ff       	callq  400cf0 <gethostbyname@plt>
  402ae3:	48 85 c0             	test   %rax,%rax
  402ae6:	75 68                	jne    402b50 <init_driver+0x116>
  402ae8:	48 b8 45 72 72 6f 72 	mov    $0x44203a726f727245,%rax
  402aef:	3a 20 44 
  402af2:	48 89 45 00          	mov    %rax,0x0(%rbp)
  402af6:	48 b8 4e 53 20 69 73 	mov    $0x6e7520736920534e,%rax
  402afd:	20 75 6e 
  402b00:	48 89 45 08          	mov    %rax,0x8(%rbp)
  402b04:	48 b8 61 62 6c 65 20 	mov    $0x206f7420656c6261,%rax
  402b0b:	74 6f 20 
  402b0e:	48 89 45 10          	mov    %rax,0x10(%rbp)
  402b12:	48 b8 72 65 73 6f 6c 	mov    $0x2065766c6f736572,%rax
  402b19:	76 65 20 
  402b1c:	48 89 45 18          	mov    %rax,0x18(%rbp)
  402b20:	48 b8 73 65 72 76 65 	mov    $0x6120726576726573,%rax
  402b27:	72 20 61 
  402b2a:	48 89 45 20          	mov    %rax,0x20(%rbp)
  402b2e:	c7 45 28 64 64 72 65 	movl   $0x65726464,0x28(%rbp)
  402b35:	66 c7 45 2c 73 73    	movw   $0x7373,0x2c(%rbp)
  402b3b:	c6 45 2e 00          	movb   $0x0,0x2e(%rbp)
  402b3f:	89 df                	mov    %ebx,%edi
  402b41:	e8 6a e1 ff ff       	callq  400cb0 <close@plt>
  402b46:	b8 ff ff ff ff       	mov    $0xffffffff,%eax
  402b4b:	e9 ac 00 00 00       	jmpq   402bfc <init_driver+0x1c2>
  402b50:	48 c7 04 24 00 00 00 	movq   $0x0,(%rsp)
  402b57:	00 
  402b58:	48 c7 44 24 08 00 00 	movq   $0x0,0x8(%rsp)
  402b5f:	00 00 
  402b61:	66 c7 04 24 02 00    	movw   $0x2,(%rsp)
  402b67:	48 8b 48 18          	mov    0x18(%rax),%rcx
  402b6b:	48 63 50 14          	movslq 0x14(%rax),%rdx
  402b6f:	48 8d 74 24 04       	lea    0x4(%rsp),%rsi
  402b74:	48 8b 39             	mov    (%rcx),%rdi
  402b77:	e8 14 e2 ff ff       	callq  400d90 <bcopy@plt>
  402b7c:	66 c7 44 24 02 47 26 	movw   $0x2647,0x2(%rsp)
  402b83:	ba 10 00 00 00       	mov    $0x10,%edx
  402b88:	48 89 e6             	mov    %rsp,%rsi
  402b8b:	89 df                	mov    %ebx,%edi
  402b8d:	e8 6e e2 ff ff       	callq  400e00 <connect@plt>
  402b92:	85 c0                	test   %eax,%eax
  402b94:	79 50                	jns    402be6 <init_driver+0x1ac>
  402b96:	48 b8 45 72 72 6f 72 	mov    $0x55203a726f727245,%rax
  402b9d:	3a 20 55 
  402ba0:	48 89 45 00          	mov    %rax,0x0(%rbp)
  402ba4:	48 b8 6e 61 62 6c 65 	mov    $0x6f7420656c62616e,%rax
  402bab:	20 74 6f 
  402bae:	48 89 45 08          	mov    %rax,0x8(%rbp)
  402bb2:	48 b8 20 63 6f 6e 6e 	mov    $0x7463656e6e6f6320,%rax
  402bb9:	65 63 74 
  402bbc:	48 89 45 10          	mov    %rax,0x10(%rbp)
  402bc0:	48 b8 20 74 6f 20 73 	mov    $0x76726573206f7420,%rax
  402bc7:	65 72 76 
  402bca:	48 89 45 18          	mov    %rax,0x18(%rbp)
  402bce:	66 c7 45 20 65 72    	movw   $0x7265,0x20(%rbp)
  402bd4:	c6 45 22 00          	movb   $0x0,0x22(%rbp)
  402bd8:	89 df                	mov    %ebx,%edi
  402bda:	e8 d1 e0 ff ff       	callq  400cb0 <close@plt>
  402bdf:	b8 ff ff ff ff       	mov    $0xffffffff,%eax
  402be4:	eb 16                	jmp    402bfc <init_driver+0x1c2>
  402be6:	89 df                	mov    %ebx,%edi
  402be8:	e8 c3 e0 ff ff       	callq  400cb0 <close@plt>
  402bed:	66 c7 45 00 4f 4b    	movw   $0x4b4f,0x0(%rbp)
  402bf3:	c6 45 02 00          	movb   $0x0,0x2(%rbp)
  402bf7:	b8 00 00 00 00       	mov    $0x0,%eax
  402bfc:	48 83 c4 18          	add    $0x18,%rsp
  402c00:	5b                   	pop    %rbx
  402c01:	5d                   	pop    %rbp
  402c02:	c3                   	retq   

0000000000402c03 <driver_post>:
  402c03:	53                   	push   %rbx
  402c04:	48 83 ec 10          	sub    $0x10,%rsp
  402c08:	4c 89 cb             	mov    %r9,%rbx
  402c0b:	45 85 c0             	test   %r8d,%r8d
  402c0e:	74 22                	je     402c32 <driver_post+0x2f>
  402c10:	48 89 ce             	mov    %rcx,%rsi
  402c13:	bf 65 35 40 00       	mov    $0x403565,%edi
  402c18:	b8 00 00 00 00       	mov    $0x0,%eax
  402c1d:	e8 5e e0 ff ff       	callq  400c80 <printf@plt>
  402c22:	66 c7 03 4f 4b       	movw   $0x4b4f,(%rbx)
  402c27:	c6 43 02 00          	movb   $0x0,0x2(%rbx)
  402c2b:	b8 00 00 00 00       	mov    $0x0,%eax
  402c30:	eb 39                	jmp    402c6b <driver_post+0x68>
  402c32:	48 85 ff             	test   %rdi,%rdi
  402c35:	74 26                	je     402c5d <driver_post+0x5a>
  402c37:	80 3f 00             	cmpb   $0x0,(%rdi)
  402c3a:	74 21                	je     402c5d <driver_post+0x5a>
  402c3c:	4c 89 0c 24          	mov    %r9,(%rsp)
  402c40:	49 89 c9             	mov    %rcx,%r9
  402c43:	49 89 d0             	mov    %rdx,%r8
  402c46:	48 89 f9             	mov    %rdi,%rcx
  402c49:	48 89 f2             	mov    %rsi,%rdx
  402c4c:	be 26 47 00 00       	mov    $0x4726,%esi
  402c51:	bf 84 30 40 00       	mov    $0x403084,%edi
  402c56:	e8 9c f6 ff ff       	callq  4022f7 <submitr>
  402c5b:	eb 0e                	jmp    402c6b <driver_post+0x68>
  402c5d:	66 c7 03 4f 4b       	movw   $0x4b4f,(%rbx)
  402c62:	c6 43 02 00          	movb   $0x0,0x2(%rbx)
  402c66:	b8 00 00 00 00       	mov    $0x0,%eax
  402c6b:	48 83 c4 10          	add    $0x10,%rsp
  402c6f:	5b                   	pop    %rbx
  402c70:	c3                   	retq   
  402c71:	0f 1f 00             	nopl   (%rax)

0000000000402c74 <check>:
  402c74:	89 f8                	mov    %edi,%eax
  402c76:	c1 e8 1c             	shr    $0x1c,%eax
  402c79:	85 c0                	test   %eax,%eax
  402c7b:	74 1d                	je     402c9a <check+0x26>
  402c7d:	b9 00 00 00 00       	mov    $0x0,%ecx
  402c82:	eb 0b                	jmp    402c8f <check+0x1b>
  402c84:	89 f8                	mov    %edi,%eax
  402c86:	d3 e8                	shr    %cl,%eax
  402c88:	3c 0a                	cmp    $0xa,%al
  402c8a:	74 14                	je     402ca0 <check+0x2c>
  402c8c:	83 c1 08             	add    $0x8,%ecx
  402c8f:	83 f9 1f             	cmp    $0x1f,%ecx
  402c92:	7e f0                	jle    402c84 <check+0x10>
  402c94:	b8 01 00 00 00       	mov    $0x1,%eax
  402c99:	c3                   	retq   
  402c9a:	b8 00 00 00 00       	mov    $0x0,%eax
  402c9f:	c3                   	retq   
  402ca0:	b8 00 00 00 00       	mov    $0x0,%eax
  402ca5:	c3                   	retq   

0000000000402ca6 <gencookie>:
  402ca6:	53                   	push   %rbx
  402ca7:	83 c7 01             	add    $0x1,%edi
  402caa:	e8 71 df ff ff       	callq  400c20 <srandom@plt>
  402caf:	e8 9c e0 ff ff       	callq  400d50 <random@plt>
  402cb4:	89 c3                	mov    %eax,%ebx
  402cb6:	89 c7                	mov    %eax,%edi
  402cb8:	e8 b7 ff ff ff       	callq  402c74 <check>
  402cbd:	85 c0                	test   %eax,%eax
  402cbf:	74 ee                	je     402caf <gencookie+0x9>
  402cc1:	89 d8                	mov    %ebx,%eax
  402cc3:	5b                   	pop    %rbx
  402cc4:	c3                   	retq   
  402cc5:	66 2e 0f 1f 84 00 00 	nopw   %cs:0x0(%rax,%rax,1)
  402ccc:	00 00 00 
  402ccf:	90                   	nop

0000000000402cd0 <__libc_csu_init>:
  402cd0:	41 57                	push   %r15
  402cd2:	41 89 ff             	mov    %edi,%r15d
  402cd5:	41 56                	push   %r14
  402cd7:	49 89 f6             	mov    %rsi,%r14
  402cda:	41 55                	push   %r13
  402cdc:	49 89 d5             	mov    %rdx,%r13
  402cdf:	41 54                	push   %r12
  402ce1:	4c 8d 25 28 21 20 00 	lea    0x202128(%rip),%r12        # 604e10 <__frame_dummy_init_array_entry>
  402ce8:	55                   	push   %rbp
  402ce9:	48 8d 2d 28 21 20 00 	lea    0x202128(%rip),%rbp        # 604e18 <__init_array_end>
  402cf0:	53                   	push   %rbx
  402cf1:	4c 29 e5             	sub    %r12,%rbp
  402cf4:	31 db                	xor    %ebx,%ebx
  402cf6:	48 c1 fd 03          	sar    $0x3,%rbp
  402cfa:	48 83 ec 08          	sub    $0x8,%rsp
  402cfe:	e8 c5 de ff ff       	callq  400bc8 <_init>
  402d03:	48 85 ed             	test   %rbp,%rbp
  402d06:	74 1e                	je     402d26 <__libc_csu_init+0x56>
  402d08:	0f 1f 84 00 00 00 00 	nopl   0x0(%rax,%rax,1)
  402d0f:	00 
  402d10:	4c 89 ea             	mov    %r13,%rdx
  402d13:	4c 89 f6             	mov    %r14,%rsi
  402d16:	44 89 ff             	mov    %r15d,%edi
  402d19:	41 ff 14 dc          	callq  *(%r12,%rbx,8)
  402d1d:	48 83 c3 01          	add    $0x1,%rbx
  402d21:	48 39 eb             	cmp    %rbp,%rbx
  402d24:	75 ea                	jne    402d10 <__libc_csu_init+0x40>
  402d26:	48 83 c4 08          	add    $0x8,%rsp
  402d2a:	5b                   	pop    %rbx
  402d2b:	5d                   	pop    %rbp
  402d2c:	41 5c                	pop    %r12
  402d2e:	41 5d                	pop    %r13
  402d30:	41 5e                	pop    %r14
  402d32:	41 5f                	pop    %r15
  402d34:	c3                   	retq   
  402d35:	66 66 2e 0f 1f 84 00 	data32 nopw %cs:0x0(%rax,%rax,1)
  402d3c:	00 00 00 00 

0000000000402d40 <__libc_csu_fini>:
  402d40:	f3 c3                	repz retq 
  402d42:	66 90                	xchg   %ax,%ax

Disassembly of section .fini:

0000000000402d44 <_fini>:
  402d44:	48 83 ec 08          	sub    $0x8,%rsp
  402d48:	48 83 c4 08          	add    $0x8,%rsp
  402d4c:	c3                   	retq   
